Certificate:
    Data:
        Version: 3 (0x2)
        Serial Number: 305419907 (0x12345683)
        Signature Algorithm: ecdsa-with-SHA256
        Issuer: CN=SRK4_sha256_secp521r1_v3_ca
        Validity
            Not Before: Apr 12 20:51:39 2022 GMT
            Not After : Apr  9 20:51:39 2032 GMT
        Subject: CN=IMG4_1_sha256_secp521r1_v3_usr
        Subject Public Key Info:
            Public Key Algorithm: id-ecPublicKey
                Public-Key: (521 bit)
                pub:
                    04:01:c0:bb:a5:e2:77:33:92:85:02:87:58:7e:85:
                    ba:86:ad:2f:17:de:0a:aa:54:5f:84:d4:66:b1:41:
                    22:4f:0d:d5:16:84:6b:d7:1d:ce:b4:54:c4:53:05:
                    5a:0e:e7:6f:5a:19:b7:9a:da:1b:c7:ea:45:bc:07:
                    79:7e:e4:e1:93:cb:d3:01:50:80:32:aa:06:01:52:
                    9e:98:da:c9:60:7c:94:8c:46:26:2f:4d:41:0b:99:
                    59:ff:50:26:02:cc:70:35:57:34:0c:98:88:c0:79:
                    37:fe:c9:3f:47:42:0a:bf:9b:de:7b:51:3e:32:6f:
                    66:79:16:b2:a2:67:d1:37:88:43:be:90:53
                ASN1 OID: secp521r1
                NIST CURVE: P-521
        X509v3 extensions:
            X509v3 Basic Constraints: 
                CA:FALSE
            Netscape Comment: 
                OpenSSL Generated Certificate
            X509v3 Subject Key Identifier: 
                C6:10:98:C5:3E:0B:59:D4:9E:5F:BB:2C:A0:89:AF:8D:46:B6:D8:E3
            X509v3 Authority Key Identifier: 
                keyid:45:23:3E:12:CB:2E:2E:5F:41:CF:CD:26:BE:2F:BA:C7:DC:63:2B:4C

    Signature Algorithm: ecdsa-with-SHA256
         30:81:87:02:42:00:de:cd:40:ab:f3:0b:07:32:4d:b4:eb:e8:
         a8:86:4e:13:2c:59:a0:d6:28:7f:ce:78:61:dd:62:77:4f:02:
         27:75:da:12:8c:75:46:f1:b3:31:8c:b5:e2:43:48:3c:75:ba:
         5a:4a:0c:0b:5a:b7:be:22:0b:9f:d7:7b:bd:cb:7e:21:94:02:
         41:4e:74:42:ad:06:13:51:5d:0d:61:88:72:7d:f0:ff:32:ad:
         07:80:68:8a:3a:34:5c:14:86:22:19:79:39:98:09:82:31:a4:
         13:7d:2d:ee:a3:52:a3:9f:6f:69:bd:89:37:99:e1:ba:99:65:
         4a:50:4c:50:1f:36:e5:b8:15:3a:74:b7
-----BEGIN CERTIFICATE-----
MIICQzCCAaWgAwIBAgIEEjRWgzAKBggqhkjOPQQDAjAmMSQwIgYDVQQDDBtTUks0
X3NoYTI1Nl9zZWNwNTIxcjFfdjNfY2EwHhcNMjIwNDEyMjA1MTM5WhcNMzIwNDA5
MjA1MTM5WjApMScwJQYDVQQDDB5JTUc0XzFfc2hhMjU2X3NlY3A1MjFyMV92M191
c3IwgZswEAYHKoZIzj0CAQYFK4EEACMDgYYABAHAu6XidzOShQKHWH6FuoatLxfe
CqpUX4TUZrFBIk8N1RaEa9cdzrRUxFMFWg7nb1oZt5raG8fqRbwHeX7k4ZPL0wFQ
gDKqBgFSnpjayWB8lIxGJi9NQQuZWf9QJgLMcDVXNAyYiMB5N/7JP0dCCr+b3ntR
PjJvZnkWsqJn0TeIQ76QU6N7MHkwCQYDVR0TBAIwADAsBglghkgBhvhCAQ0EHxYd
T3BlblNTTCBHZW5lcmF0ZWQgQ2VydGlmaWNhdGUwHQYDVR0OBBYEFMYQmMU+C1nU
nl+7LKCJr41GttjjMB8GA1UdIwQYMBaAFEUjPhLLLi5fQc/NJr4vusfcYytMMAoG
CCqGSM49BAMCA4GLADCBhwJCAN7NQKvzCwcyTbTr6KiGThMsWaDWKH/OeGHdYndP
Aid12hKMdUbxszGMteJDSDx1ulpKDAtat74iC5/Xe73LfiGUAkFOdEKtBhNRXQ1h
iHJ98P8yrQeAaIo6NFwUhiIZeTmYCYIxpBN9Le6jUqOfb2m9iTeZ4bqZZUpQTFAf
NuW4FTp0tw==
-----END CERTIFICATE-----
