Certificate:
    Data:
        Version: 3 (0x2)
        Serial Number: 305419899 (0x1234567b)
        Signature Algorithm: ecdsa-with-SHA256
        Issuer: CN=CA1_sha256_secp521r1_v3_ca
        Validity
            Not Before: Apr 12 20:51:38 2022 GMT
            Not After : Apr  9 20:51:38 2032 GMT
        Subject: CN=SRK2_sha256_secp521r1_v3_ca
        Subject Public Key Info:
            Public Key Algorithm: id-ecPublicKey
                Public-Key: (521 bit)
                pub:
                    04:00:fb:3e:1c:53:d2:1e:92:65:43:23:d0:5c:36:
                    db:77:73:20:53:71:9d:5d:fd:05:80:6d:a1:e7:a4:
                    5f:23:55:ef:be:10:5e:13:3d:73:d5:94:5d:d9:6b:
                    84:fa:b9:48:d2:4e:8d:bf:2e:48:88:0f:7d:74:ad:
                    8f:7d:95:a7:0c:22:d1:00:3c:65:a3:79:c2:bb:91:
                    20:06:01:4f:cc:16:e9:05:ff:2b:67:8f:2c:d0:0c:
                    8b:01:b0:b6:21:0a:d8:23:5b:01:34:5a:57:89:11:
                    e9:14:fa:82:8b:98:ed:e1:33:b1:9e:47:a0:4a:b6:
                    18:80:31:a1:39:d5:78:b1:0c:da:e1:13:09
                ASN1 OID: secp521r1
                NIST CURVE: P-521
        X509v3 extensions:
            X509v3 Subject Key Identifier: 
                4A:C7:54:B5:EC:14:00:A8:0B:C0:38:18:40:F5:6F:B3:91:EA:CA:2C
            X509v3 Authority Key Identifier: 
                keyid:47:F7:57:FB:17:69:51:1C:6D:29:C2:D5:E7:DF:3B:97:30:35:24:03
                DirName:/CN=CA1_sha256_secp521r1_v3_ca
                serial:38:BD:27:A6:61:E1:F3:3F:80:AB:96:45:72:E4:10:8F:E1:2B:0B:C0

            X509v3 Basic Constraints: critical
                CA:TRUE
            X509v3 Key Usage: 
                Certificate Sign
    Signature Algorithm: ecdsa-with-SHA256
         30:81:88:02:42:01:5f:9c:12:bf:dd:a3:9d:9f:0e:e7:2b:2a:
         dc:85:7b:61:1c:4c:40:fc:2e:7c:f8:54:b2:42:e7:9a:07:e1:
         6e:f1:ea:79:40:6b:9b:db:e7:55:eb:85:65:72:49:86:74:3e:
         4c:ce:b0:28:5d:65:62:1f:43:a2:23:88:15:44:2e:6d:76:02:
         42:01:2f:46:be:7e:59:09:d9:3e:ca:29:2a:36:ef:11:41:df:
         40:85:ca:4e:5d:59:44:9a:59:a7:50:03:06:23:d0:7e:8d:ff:
         63:33:37:08:49:d5:d3:67:c6:9a:b2:ad:d7:d8:60:e2:83:ba:
         b3:0b:bd:b5:aa:a2:1c:9e:23:62:7b:ed:54
-----BEGIN CERTIFICATE-----
MIICaDCCAcmgAwIBAgIEEjRWezAKBggqhkjOPQQDAjAlMSMwIQYDVQQDFBpDQTFf
c2hhMjU2X3NlY3A1MjFyMV92M19jYTAeFw0yMjA0MTIyMDUxMzhaFw0zMjA0MDky
MDUxMzhaMCYxJDAiBgNVBAMMG1NSSzJfc2hhMjU2X3NlY3A1MjFyMV92M19jYTCB
mzAQBgcqhkjOPQIBBgUrgQQAIwOBhgAEAPs+HFPSHpJlQyPQXDbbd3MgU3GdXf0F
gG2h56RfI1XvvhBeEz1z1ZRd2WuE+rlI0k6Nvy5IiA99dK2PfZWnDCLRADxlo3nC
u5EgBgFPzBbpBf8rZ48s0AyLAbC2IQrYI1sBNFpXiRHpFPqCi5jt4TOxnkegSrYY
gDGhOdV4sQza4RMJo4GiMIGfMB0GA1UdDgQWBBRKx1S17BQAqAvAOBhA9W+zkerK
LDBgBgNVHSMEWTBXgBRH91f7F2lRHG0pwtXn3zuXMDUkA6EppCcwJTEjMCEGA1UE
AxQaQ0ExX3NoYTI1Nl9zZWNwNTIxcjFfdjNfY2GCFDi9J6Zh4fM/gKuWRXLkEI/h
KwvAMA8GA1UdEwEB/wQFMAMBAf8wCwYDVR0PBAQDAgIEMAoGCCqGSM49BAMCA4GM
ADCBiAJCAV+cEr/do52fDucrKtyFe2EcTED8Lnz4VLJC55oH4W7x6nlAa5vb51Xr
hWVySYZ0PkzOsChdZWIfQ6IjiBVELm12AkIBL0a+flkJ2T7KKSo27xFB30CFyk5d
WUSaWadQAwYj0H6N/2MzNwhJ1dNnxpqyrdfYYOKDurMLvbWqohyeI2J77VQ=
-----END CERTIFICATE-----
