Certificate:
    Data:
        Version: 3 (0x2)
        Serial Number: 305419905 (0x12345681)
        Signature Algorithm: ecdsa-with-SHA256
        Issuer: CN=CA1_sha256_secp521r1_v3_ca
        Validity
            Not Before: Apr 12 20:51:39 2022 GMT
            Not After : Apr  9 20:51:39 2032 GMT
        Subject: CN=SRK4_sha256_secp521r1_v3_ca
        Subject Public Key Info:
            Public Key Algorithm: id-ecPublicKey
                Public-Key: (521 bit)
                pub:
                    04:01:a1:72:23:60:37:12:c2:27:73:ef:08:7b:dd:
                    eb:78:66:9f:43:e4:0d:9c:17:4a:63:df:a2:79:4f:
                    49:c4:03:7a:13:c6:a3:20:48:c7:ba:7a:a7:9b:de:
                    be:60:56:9d:85:5c:d9:2a:94:86:2c:25:c8:9b:7b:
                    f6:49:d1:e7:d8:e4:22:01:95:01:00:63:df:b0:22:
                    e5:30:b7:da:fa:f6:1c:a8:12:41:23:bc:6d:f1:bb:
                    65:31:6d:57:8f:3f:2c:24:8f:1d:51:44:14:fb:99:
                    78:c2:15:98:ce:c8:89:3d:2f:d3:9c:51:48:d4:0f:
                    1b:71:ef:4b:29:13:62:1e:0f:d6:5b:79:fd
                ASN1 OID: secp521r1
                NIST CURVE: P-521
        X509v3 extensions:
            X509v3 Subject Key Identifier: 
                45:23:3E:12:CB:2E:2E:5F:41:CF:CD:26:BE:2F:BA:C7:DC:63:2B:4C
            X509v3 Authority Key Identifier: 
                keyid:47:F7:57:FB:17:69:51:1C:6D:29:C2:D5:E7:DF:3B:97:30:35:24:03
                DirName:/CN=CA1_sha256_secp521r1_v3_ca
                serial:38:BD:27:A6:61:E1:F3:3F:80:AB:96:45:72:E4:10:8F:E1:2B:0B:C0

            X509v3 Basic Constraints: critical
                CA:TRUE
            X509v3 Key Usage: 
                Certificate Sign
    Signature Algorithm: ecdsa-with-SHA256
         30:81:86:02:41:2d:c8:60:aa:3d:ea:52:1a:bd:72:07:45:97:
         33:18:62:8d:aa:a8:67:5f:9a:cb:38:25:2a:37:ee:c1:d1:53:
         21:a0:b0:37:97:aa:a9:5f:fc:d0:72:df:85:be:d7:3d:90:fc:
         37:ad:14:37:8b:94:b6:75:04:cc:dc:53:ec:88:cf:32:02:41:
         7e:76:74:17:ff:88:7b:2c:93:5e:23:ae:76:11:f2:38:bf:a1:
         77:2e:d4:50:a7:fa:de:79:8c:3d:e5:fe:c9:b0:56:69:42:10:
         ba:7b:91:0f:dd:66:97:41:b1:4a:96:d6:90:f5:70:e9:dc:0a:
         f0:56:b7:0f:87:b2:0c:49:89:46:e9
-----BEGIN CERTIFICATE-----
MIICZjCCAcmgAwIBAgIEEjRWgTAKBggqhkjOPQQDAjAlMSMwIQYDVQQDFBpDQTFf
c2hhMjU2X3NlY3A1MjFyMV92M19jYTAeFw0yMjA0MTIyMDUxMzlaFw0zMjA0MDky
MDUxMzlaMCYxJDAiBgNVBAMMG1NSSzRfc2hhMjU2X3NlY3A1MjFyMV92M19jYTCB
mzAQBgcqhkjOPQIBBgUrgQQAIwOBhgAEAaFyI2A3EsInc+8Ie93reGafQ+QNnBdK
Y9+ieU9JxAN6E8ajIEjHunqnm96+YFadhVzZKpSGLCXIm3v2SdHn2OQiAZUBAGPf
sCLlMLfa+vYcqBJBI7xt8btlMW1Xjz8sJI8dUUQU+5l4whWYzsiJPS/TnFFI1A8b
ce9LKRNiHg/WW3n9o4GiMIGfMB0GA1UdDgQWBBRFIz4Syy4uX0HPzSa+L7rH3GMr
TDBgBgNVHSMEWTBXgBRH91f7F2lRHG0pwtXn3zuXMDUkA6EppCcwJTEjMCEGA1UE
AxQaQ0ExX3NoYTI1Nl9zZWNwNTIxcjFfdjNfY2GCFDi9J6Zh4fM/gKuWRXLkEI/h
KwvAMA8GA1UdEwEB/wQFMAMBAf8wCwYDVR0PBAQDAgIEMAoGCCqGSM49BAMCA4GK
ADCBhgJBLchgqj3qUhq9cgdFlzMYYo2qqGdfmss4JSo37sHRUyGgsDeXqqlf/NBy
34W+1z2Q/DetFDeLlLZ1BMzcU+yIzzICQX52dBf/iHssk14jrnYR8ji/oXcu1FCn
+t55jD3l/smwVmlCELp7kQ/dZpdBsUqW1pD1cOncCvBWtw+HsgxJiUbp
-----END CERTIFICATE-----
