Certificate:
    Data:
        Version: 3 (0x2)
        Serial Number: 305419904 (0x12345680)
        Signature Algorithm: ecdsa-with-SHA256
        Issuer: CN=SRK3_sha256_secp521r1_v3_ca
        Validity
            Not Before: Apr 12 20:51:39 2022 GMT
            Not After : Apr  9 20:51:39 2032 GMT
        Subject: CN=IMG3_1_sha256_secp521r1_v3_usr
        Subject Public Key Info:
            Public Key Algorithm: id-ecPublicKey
                Public-Key: (521 bit)
                pub:
                    04:01:38:d1:d6:d1:a2:2c:de:7b:c5:28:9b:e7:07:
                    78:de:5d:54:ad:ed:71:9e:3a:64:d6:60:7e:9f:20:
                    9c:cd:5c:31:3c:26:c7:78:31:c2:5d:8a:3f:12:e1:
                    dd:4c:85:b4:3f:78:7b:d8:60:db:65:f9:a9:d6:41:
                    ed:26:fa:74:d5:89:5e:01:49:8b:80:22:7c:f4:62:
                    60:27:de:32:44:fc:09:b1:43:f0:ab:63:13:43:39:
                    c7:4f:38:04:0a:b0:b9:65:49:9e:d9:31:f1:79:6f:
                    83:3f:6f:68:cc:d7:cc:b8:26:c3:49:b0:82:a0:7c:
                    0a:5a:cb:70:8c:1a:3f:54:c8:73:dd:d3:d9
                ASN1 OID: secp521r1
                NIST CURVE: P-521
        X509v3 extensions:
            X509v3 Basic Constraints: 
                CA:FALSE
            Netscape Comment: 
                OpenSSL Generated Certificate
            X509v3 Subject Key Identifier: 
                47:A0:98:B4:0B:5C:33:E2:6D:2A:25:8A:A8:D6:23:CC:D6:22:C4:24
            X509v3 Authority Key Identifier: 
                keyid:2F:34:7D:35:D5:E0:A9:1E:E0:3A:92:B1:34:BA:8D:DC:D4:47:C9:CD

    Signature Algorithm: ecdsa-with-SHA256
         30:81:88:02:42:01:5b:57:e9:26:88:b0:de:d8:01:a3:02:55:
         f7:3f:f7:18:a4:87:e0:ee:44:40:f5:9f:25:68:88:f1:ce:58:
         aa:9b:5e:6f:62:4c:28:b5:bc:34:a7:a1:20:bd:2a:6f:4a:1e:
         ac:b9:52:cd:08:41:4e:b8:c2:df:5d:d5:cf:fb:79:7a:07:02:
         42:00:e8:79:da:25:8c:4c:40:5d:96:04:e6:f1:cf:4f:6d:43:
         83:fc:8d:68:6f:82:eb:96:4e:4c:3b:99:87:97:08:6f:e4:0f:
         ec:1c:f2:50:12:64:91:95:44:a2:c4:6c:66:c1:17:72:5c:fb:
         f3:fc:17:fb:1a:f6:c6:91:25:80:25:76:ac
-----BEGIN CERTIFICATE-----
MIICRDCCAaWgAwIBAgIEEjRWgDAKBggqhkjOPQQDAjAmMSQwIgYDVQQDDBtTUksz
X3NoYTI1Nl9zZWNwNTIxcjFfdjNfY2EwHhcNMjIwNDEyMjA1MTM5WhcNMzIwNDA5
MjA1MTM5WjApMScwJQYDVQQDDB5JTUczXzFfc2hhMjU2X3NlY3A1MjFyMV92M191
c3IwgZswEAYHKoZIzj0CAQYFK4EEACMDgYYABAE40dbRoizee8Uom+cHeN5dVK3t
cZ46ZNZgfp8gnM1cMTwmx3gxwl2KPxLh3UyFtD94e9hg22X5qdZB7Sb6dNWJXgFJ
i4AifPRiYCfeMkT8CbFD8KtjE0M5x084BAqwuWVJntkx8Xlvgz9vaMzXzLgmw0mw
gqB8ClrLcIwaP1TIc93T2aN7MHkwCQYDVR0TBAIwADAsBglghkgBhvhCAQ0EHxYd
T3BlblNTTCBHZW5lcmF0ZWQgQ2VydGlmaWNhdGUwHQYDVR0OBBYEFEegmLQLXDPi
bSoliqjWI8zWIsQkMB8GA1UdIwQYMBaAFC80fTXV4Kke4DqSsTS6jdzUR8nNMAoG
CCqGSM49BAMCA4GMADCBiAJCAVtX6SaIsN7YAaMCVfc/9xikh+DuRED1nyVoiPHO
WKqbXm9iTCi1vDSnoSC9Km9KHqy5Us0IQU64wt9d1c/7eXoHAkIA6HnaJYxMQF2W
BObxz09tQ4P8jWhvguuWTkw7mYeXCG/kD+wc8lASZJGVRKLEbGbBF3Jc+/P8F/sa
9saRJYAldqw=
-----END CERTIFICATE-----
