Certificate:
    Data:
        Version: 3 (0x2)
        Serial Number: 305419897 (0x12345679)
        Signature Algorithm: ecdsa-with-SHA256
        Issuer: CN=SRK1_sha256_secp521r1_v3_ca
        Validity
            Not Before: Apr 12 20:51:38 2022 GMT
            Not After : Apr  9 20:51:38 2032 GMT
        Subject: CN=CSF1_1_sha256_secp521r1_v3_usr
        Subject Public Key Info:
            Public Key Algorithm: id-ecPublicKey
                Public-Key: (521 bit)
                pub:
                    04:01:8c:8d:4a:4b:f5:53:a9:11:70:a6:94:8f:f5:
                    b2:2b:f9:63:45:45:a5:4c:17:52:ac:86:0c:f3:da:
                    78:44:0f:4d:38:7f:54:d9:5f:92:86:83:4c:6f:36:
                    17:39:f2:69:58:37:68:15:6a:26:cd:7a:f8:2b:fa:
                    96:01:2f:e8:aa:f3:58:00:27:87:6a:63:3d:a5:e7:
                    37:83:c7:b0:3e:f5:fd:3d:36:84:b5:52:22:01:a3:
                    56:bb:70:16:5e:dd:5a:6a:4b:ef:69:4c:54:26:22:
                    70:23:9e:61:8e:33:6b:b4:d2:f1:9f:78:7e:c5:be:
                    8a:a1:a3:8b:02:97:2f:e6:18:54:74:c9:59
                ASN1 OID: secp521r1
                NIST CURVE: P-521
        X509v3 extensions:
            X509v3 Basic Constraints: 
                CA:FALSE
            Netscape Comment: 
                OpenSSL Generated Certificate
            X509v3 Subject Key Identifier: 
                12:C4:E9:7B:2B:BE:88:EC:B8:7B:1F:2B:1F:46:50:0C:A8:A8:17:B8
            X509v3 Authority Key Identifier: 
                keyid:1A:AB:EE:F8:CA:25:1B:FD:BE:BB:E8:BC:02:9A:41:88:F9:23:49:00

    Signature Algorithm: ecdsa-with-SHA256
         30:81:87:02:42:00:f9:50:86:90:5d:fd:52:03:06:5a:85:ff:
         84:55:61:8b:67:41:3e:47:46:32:c1:41:8f:17:9a:b0:70:22:
         d9:49:7d:42:ba:1f:20:4a:3c:51:a4:5e:bf:35:6f:9a:b3:69:
         cf:82:ed:a8:19:ec:cd:b4:c7:2d:7d:b4:0c:9c:ed:e4:30:02:
         41:62:03:2a:d8:8f:44:8f:c8:c0:52:40:80:13:e0:8b:4e:44:
         00:c0:99:59:ef:ed:9b:b7:57:7f:07:85:10:5d:d3:3a:2c:d0:
         03:fd:fd:4f:56:6b:96:da:52:c0:c1:51:78:31:0c:d2:b1:51:
         7f:dc:45:4d:55:20:39:c6:ac:0b:4d:49
-----BEGIN CERTIFICATE-----
MIICQzCCAaWgAwIBAgIEEjRWeTAKBggqhkjOPQQDAjAmMSQwIgYDVQQDDBtTUksx
X3NoYTI1Nl9zZWNwNTIxcjFfdjNfY2EwHhcNMjIwNDEyMjA1MTM4WhcNMzIwNDA5
MjA1MTM4WjApMScwJQYDVQQDDB5DU0YxXzFfc2hhMjU2X3NlY3A1MjFyMV92M191
c3IwgZswEAYHKoZIzj0CAQYFK4EEACMDgYYABAGMjUpL9VOpEXCmlI/1siv5Y0VF
pUwXUqyGDPPaeEQPTTh/VNlfkoaDTG82FznyaVg3aBVqJs16+Cv6lgEv6KrzWAAn
h2pjPaXnN4PHsD71/T02hLVSIgGjVrtwFl7dWmpL72lMVCYicCOeYY4za7TS8Z94
fsW+iqGjiwKXL+YYVHTJWaN7MHkwCQYDVR0TBAIwADAsBglghkgBhvhCAQ0EHxYd
T3BlblNTTCBHZW5lcmF0ZWQgQ2VydGlmaWNhdGUwHQYDVR0OBBYEFBLE6Xsrvojs
uHsfKx9GUAyoqBe4MB8GA1UdIwQYMBaAFBqr7vjKJRv9vrvovAKaQYj5I0kAMAoG
CCqGSM49BAMCA4GLADCBhwJCAPlQhpBd/VIDBlqF/4RVYYtnQT5HRjLBQY8XmrBw
ItlJfUK6HyBKPFGkXr81b5qzac+C7agZ7M20xy19tAyc7eQwAkFiAyrYj0SPyMBS
QIAT4ItORADAmVnv7Zu3V38HhRBd0zos0AP9/U9Wa5baUsDBUXgxDNKxUX/cRU1V
IDnGrAtNSQ==
-----END CERTIFICATE-----
