Certificate:
    Data:
        Version: 3 (0x2)
        Serial Number: 305419902 (0x1234567e)
        Signature Algorithm: ecdsa-with-SHA256
        Issuer: CN=CA1_sha256_secp521r1_v3_ca
        Validity
            Not Before: Apr 12 20:51:39 2022 GMT
            Not After : Apr  9 20:51:39 2032 GMT
        Subject: CN=SRK3_sha256_secp521r1_v3_ca
        Subject Public Key Info:
            Public Key Algorithm: id-ecPublicKey
                Public-Key: (521 bit)
                pub:
                    04:00:ab:32:de:dc:1e:34:53:8b:69:f5:c9:bf:b3:
                    09:6c:f7:8c:68:03:cb:e7:c6:e0:b5:e4:50:73:4c:
                    ba:b3:52:ec:01:56:01:56:c5:23:ae:25:b8:3a:0d:
                    92:db:d8:e4:66:39:2a:27:19:0a:24:17:3d:62:bd:
                    82:39:a1:8a:bf:fa:00:00:d7:8c:bd:9d:f5:7e:6e:
                    19:de:5e:f0:a2:ec:85:80:7e:f4:78:60:52:90:24:
                    ef:7c:73:3b:fd:09:f5:e4:ec:cf:fc:47:e9:e1:84:
                    eb:9f:cc:fa:47:e7:6d:ce:c1:1b:6f:fc:a2:4f:fc:
                    5f:5f:be:bc:27:41:b0:86:de:3f:61:ed:77
                ASN1 OID: secp521r1
                NIST CURVE: P-521
        X509v3 extensions:
            X509v3 Subject Key Identifier: 
                2F:34:7D:35:D5:E0:A9:1E:E0:3A:92:B1:34:BA:8D:DC:D4:47:C9:CD
            X509v3 Authority Key Identifier: 
                keyid:47:F7:57:FB:17:69:51:1C:6D:29:C2:D5:E7:DF:3B:97:30:35:24:03
                DirName:/CN=CA1_sha256_secp521r1_v3_ca
                serial:38:BD:27:A6:61:E1:F3:3F:80:AB:96:45:72:E4:10:8F:E1:2B:0B:C0

            X509v3 Basic Constraints: critical
                CA:TRUE
            X509v3 Key Usage: 
                Certificate Sign
    Signature Algorithm: ecdsa-with-SHA256
         30:81:88:02:42:00:99:12:82:f3:74:ce:19:01:c0:6a:1e:a5:
         7b:6b:f6:72:27:21:49:86:0c:68:7a:8b:83:ae:11:5c:46:21:
         a0:dd:af:e5:62:96:5f:37:9d:c3:14:de:e8:d6:57:67:11:43:
         99:de:29:b7:8c:45:ba:a3:9d:55:b3:36:dd:6c:62:51:b0:02:
         42:01:b4:9d:16:48:17:70:be:49:1f:30:ca:f8:c3:eb:93:99:
         f0:ae:af:38:79:a5:73:9e:30:6b:09:70:8d:97:ac:89:17:ac:
         bc:a6:06:8f:8f:72:1d:31:7e:24:d1:62:5b:35:f1:06:1c:01:
         89:56:bf:a5:a6:f3:2b:b3:30:34:5e:d7:93
-----BEGIN CERTIFICATE-----
MIICaDCCAcmgAwIBAgIEEjRWfjAKBggqhkjOPQQDAjAlMSMwIQYDVQQDFBpDQTFf
c2hhMjU2X3NlY3A1MjFyMV92M19jYTAeFw0yMjA0MTIyMDUxMzlaFw0zMjA0MDky
MDUxMzlaMCYxJDAiBgNVBAMMG1NSSzNfc2hhMjU2X3NlY3A1MjFyMV92M19jYTCB
mzAQBgcqhkjOPQIBBgUrgQQAIwOBhgAEAKsy3tweNFOLafXJv7MJbPeMaAPL58bg
teRQc0y6s1LsAVYBVsUjriW4Og2S29jkZjkqJxkKJBc9Yr2COaGKv/oAANeMvZ31
fm4Z3l7wouyFgH70eGBSkCTvfHM7/Qn15OzP/Efp4YTrn8z6R+dtzsEbb/yiT/xf
X768J0Gwht4/Ye13o4GiMIGfMB0GA1UdDgQWBBQvNH011eCpHuA6krE0uo3c1EfJ
zTBgBgNVHSMEWTBXgBRH91f7F2lRHG0pwtXn3zuXMDUkA6EppCcwJTEjMCEGA1UE
AxQaQ0ExX3NoYTI1Nl9zZWNwNTIxcjFfdjNfY2GCFDi9J6Zh4fM/gKuWRXLkEI/h
KwvAMA8GA1UdEwEB/wQFMAMBAf8wCwYDVR0PBAQDAgIEMAoGCCqGSM49BAMCA4GM
ADCBiAJCAJkSgvN0zhkBwGoepXtr9nInIUmGDGh6i4OuEVxGIaDdr+Vill83ncMU
3ujWV2cRQ5neKbeMRbqjnVWzNt1sYlGwAkIBtJ0WSBdwvkkfMMr4w+uTmfCurzh5
pXOeMGsJcI2XrIkXrLymBo+Pch0xfiTRYls18QYcAYlWv6Wm8yuzMDRe15M=
-----END CERTIFICATE-----
