Certificate:
    Data:
        Version: 3 (0x2)
        Serial Number: 305419903 (0x1234567f)
        Signature Algorithm: ecdsa-with-SHA256
        Issuer: CN=SRK3_sha256_secp521r1_v3_ca
        Validity
            Not Before: Apr 12 20:51:39 2022 GMT
            Not After : Apr  9 20:51:39 2032 GMT
        Subject: CN=CSF3_1_sha256_secp521r1_v3_usr
        Subject Public Key Info:
            Public Key Algorithm: id-ecPublicKey
                Public-Key: (521 bit)
                pub:
                    04:00:6c:4f:f9:81:66:e1:c9:f4:fa:52:88:06:96:
                    41:03:89:4f:a7:96:1f:e5:ae:15:ec:ad:f3:61:e4:
                    23:29:21:3a:f4:1a:66:96:b9:24:6a:34:c9:55:08:
                    0d:6d:c2:62:c1:f9:cd:2e:ea:15:5f:7a:66:db:21:
                    5e:11:f3:5b:aa:06:f2:01:eb:20:40:e0:ce:d7:7c:
                    db:bd:a5:0e:91:3e:c2:99:da:5c:4a:5e:b2:c7:e2:
                    19:14:23:8f:be:e5:93:46:7b:39:6d:02:bb:88:0c:
                    94:2f:d9:c4:40:52:0e:14:a3:94:df:50:4a:83:88:
                    98:8c:0e:3f:d6:88:93:0f:32:ff:2f:f5:c5
                ASN1 OID: secp521r1
                NIST CURVE: P-521
        X509v3 extensions:
            X509v3 Basic Constraints: 
                CA:FALSE
            Netscape Comment: 
                OpenSSL Generated Certificate
            X509v3 Subject Key Identifier: 
                0B:06:94:7E:E1:A7:3C:89:DE:81:C1:B0:DA:BD:81:52:0F:4D:B1:9A
            X509v3 Authority Key Identifier: 
                keyid:2F:34:7D:35:D5:E0:A9:1E:E0:3A:92:B1:34:BA:8D:DC:D4:47:C9:CD

    Signature Algorithm: ecdsa-with-SHA256
         30:81:88:02:42:01:18:5b:f3:66:a4:ea:47:39:10:b4:dc:6e:
         87:77:43:c9:40:7f:8e:34:f3:d5:c8:a5:4a:b5:3d:b4:5a:bd:
         36:65:f9:26:92:3c:b4:d5:1b:ac:d0:83:64:c0:25:15:d9:3d:
         e5:69:61:ef:5a:d6:30:71:64:27:9b:8b:36:ea:04:19:d5:02:
         42:01:ad:68:58:ba:ea:c2:40:3e:52:57:49:de:eb:2e:67:42:
         92:94:55:ad:7d:0a:72:7b:08:43:51:2a:9a:d8:b2:19:81:48:
         65:ea:ca:47:ee:e4:ba:9f:79:be:88:ff:03:9f:c0:e6:ea:1e:
         22:fa:fe:ad:93:22:69:36:9c:f1:fa:47:40
-----BEGIN CERTIFICATE-----
MIICRDCCAaWgAwIBAgIEEjRWfzAKBggqhkjOPQQDAjAmMSQwIgYDVQQDDBtTUksz
X3NoYTI1Nl9zZWNwNTIxcjFfdjNfY2EwHhcNMjIwNDEyMjA1MTM5WhcNMzIwNDA5
MjA1MTM5WjApMScwJQYDVQQDDB5DU0YzXzFfc2hhMjU2X3NlY3A1MjFyMV92M191
c3IwgZswEAYHKoZIzj0CAQYFK4EEACMDgYYABABsT/mBZuHJ9PpSiAaWQQOJT6eW
H+WuFeyt82HkIykhOvQaZpa5JGo0yVUIDW3CYsH5zS7qFV96ZtshXhHzW6oG8gHr
IEDgztd8272lDpE+wpnaXEpessfiGRQjj77lk0Z7OW0Cu4gMlC/ZxEBSDhSjlN9Q
SoOImIwOP9aIkw8y/y/1xaN7MHkwCQYDVR0TBAIwADAsBglghkgBhvhCAQ0EHxYd
T3BlblNTTCBHZW5lcmF0ZWQgQ2VydGlmaWNhdGUwHQYDVR0OBBYEFAsGlH7hpzyJ
3oHBsNq9gVIPTbGaMB8GA1UdIwQYMBaAFC80fTXV4Kke4DqSsTS6jdzUR8nNMAoG
CCqGSM49BAMCA4GMADCBiAJCARhb82ak6kc5ELTcbod3Q8lAf44089XIpUq1PbRa
vTZl+SaSPLTVG6zQg2TAJRXZPeVpYe9a1jBxZCebizbqBBnVAkIBrWhYuurCQD5S
V0ne6y5nQpKUVa19CnJ7CENRKprYshmBSGXqykfu5Lqfeb6I/wOfwObqHiL6/q2T
Imk2nPH6R0A=
-----END CERTIFICATE-----
