Certificate:
    Data:
        Version: 3 (0x2)
        Serial Number: 305419898 (0x1234567a)
        Signature Algorithm: ecdsa-with-SHA256
        Issuer: CN=SRK1_sha256_secp521r1_v3_ca
        Validity
            Not Before: Apr 12 20:51:38 2022 GMT
            Not After : Apr  9 20:51:38 2032 GMT
        Subject: CN=IMG1_1_sha256_secp521r1_v3_usr
        Subject Public Key Info:
            Public Key Algorithm: id-ecPublicKey
                Public-Key: (521 bit)
                pub:
                    04:01:b4:10:29:bf:a4:74:1b:35:f3:b7:36:ae:ac:
                    a6:86:43:93:27:47:98:87:75:d4:3e:00:c0:1d:41:
                    69:ae:ae:ba:b1:10:0b:e3:ee:6c:ef:d2:15:70:8a:
                    2b:6e:57:16:2a:03:d4:04:ab:cf:9c:35:45:21:71:
                    69:c5:79:0d:29:6a:60:00:ec:f5:6b:26:8f:ac:01:
                    77:09:34:b8:18:cc:f2:f9:8d:7f:34:0a:44:c4:c3:
                    e0:56:79:d5:84:b0:24:88:3f:80:5f:df:ba:1e:c0:
                    46:01:a7:3c:76:8c:06:b7:9e:77:89:5e:7e:2b:0d:
                    ab:12:de:fc:f7:8e:ad:eb:d6:eb:6b:5c:bd
                ASN1 OID: secp521r1
                NIST CURVE: P-521
        X509v3 extensions:
            X509v3 Basic Constraints: 
                CA:FALSE
            Netscape Comment: 
                OpenSSL Generated Certificate
            X509v3 Subject Key Identifier: 
                BD:2D:D1:85:21:DC:11:50:D8:A4:F8:76:34:61:F1:E7:24:CA:D1:A9
            X509v3 Authority Key Identifier: 
                keyid:1A:AB:EE:F8:CA:25:1B:FD:BE:BB:E8:BC:02:9A:41:88:F9:23:49:00

    Signature Algorithm: ecdsa-with-SHA256
         30:81:88:02:42:01:f8:ea:4f:90:97:5b:36:fc:93:f3:ee:b8:
         2f:aa:28:02:b4:fd:77:d8:80:da:b9:d4:dc:a4:99:33:0e:94:
         83:33:53:8b:27:f2:64:fe:32:45:53:cf:0e:fc:c5:d6:e5:d6:
         bc:50:8b:13:07:50:14:6d:1f:67:be:be:69:44:e0:43:84:02:
         42:01:56:5b:4e:fc:0c:fb:4a:67:df:6a:d0:b6:39:3d:f0:64:
         c5:da:ca:99:44:b7:4b:0c:ac:dc:94:35:02:b2:8d:77:08:ca:
         f8:1a:56:8b:71:dc:63:b0:cd:fa:97:39:8a:4e:51:ec:51:b6:
         5c:8c:34:04:4e:c5:d4:bf:fa:42:1a:32:d3
-----BEGIN CERTIFICATE-----
MIICRDCCAaWgAwIBAgIEEjRWejAKBggqhkjOPQQDAjAmMSQwIgYDVQQDDBtTUksx
X3NoYTI1Nl9zZWNwNTIxcjFfdjNfY2EwHhcNMjIwNDEyMjA1MTM4WhcNMzIwNDA5
MjA1MTM4WjApMScwJQYDVQQDDB5JTUcxXzFfc2hhMjU2X3NlY3A1MjFyMV92M191
c3IwgZswEAYHKoZIzj0CAQYFK4EEACMDgYYABAG0ECm/pHQbNfO3Nq6spoZDkydH
mId11D4AwB1Baa6uurEQC+PubO/SFXCKK25XFioD1ASrz5w1RSFxacV5DSlqYADs
9Wsmj6wBdwk0uBjM8vmNfzQKRMTD4FZ51YSwJIg/gF/fuh7ARgGnPHaMBreed4le
fisNqxLe/PeOrevW62tcvaN7MHkwCQYDVR0TBAIwADAsBglghkgBhvhCAQ0EHxYd
T3BlblNTTCBHZW5lcmF0ZWQgQ2VydGlmaWNhdGUwHQYDVR0OBBYEFL0t0YUh3BFQ
2KT4djRh8eckytGpMB8GA1UdIwQYMBaAFBqr7vjKJRv9vrvovAKaQYj5I0kAMAoG
CCqGSM49BAMCA4GMADCBiAJCAfjqT5CXWzb8k/PuuC+qKAK0/XfYgNq51NykmTMO
lIMzU4sn8mT+MkVTzw78xdbl1rxQixMHUBRtH2e+vmlE4EOEAkIBVltO/Az7Smff
atC2OT3wZMXayplEt0sMrNyUNQKyjXcIyvgaVotx3GOwzfqXOYpOUexRtlyMNARO
xdS/+kIaMtM=
-----END CERTIFICATE-----
