Certificate:
    Data:
        Version: 3 (0x2)
        Serial Number: 305419900 (0x1234567c)
        Signature Algorithm: ecdsa-with-SHA256
        Issuer: CN=SRK2_sha256_secp521r1_v3_ca
        Validity
            Not Before: Apr 12 20:51:39 2022 GMT
            Not After : Apr  9 20:51:39 2032 GMT
        Subject: CN=CSF2_1_sha256_secp521r1_v3_usr
        Subject Public Key Info:
            Public Key Algorithm: id-ecPublicKey
                Public-Key: (521 bit)
                pub:
                    04:01:70:94:4a:42:2b:fe:6e:0b:31:0e:e6:c4:4a:
                    30:73:06:66:d5:b0:29:d8:99:ef:7f:41:d5:a2:d0:
                    4f:98:ec:46:fe:96:a1:78:a0:4a:be:5b:cf:6d:57:
                    78:da:32:56:7d:9e:d5:02:72:87:5d:c8:78:a9:b3:
                    31:b0:43:e5:17:54:9a:01:79:0e:b4:2e:ee:fe:d0:
                    c6:c7:00:cb:68:bd:9b:00:07:b3:d7:1a:de:51:fb:
                    ad:10:f2:db:b3:92:33:18:a5:2e:8f:12:15:e5:85:
                    43:97:bd:52:0a:4e:72:48:23:ba:09:bc:1a:8c:e2:
                    45:04:8d:e0:3c:66:49:a6:45:13:14:71:92
                ASN1 OID: secp521r1
                NIST CURVE: P-521
        X509v3 extensions:
            X509v3 Basic Constraints: 
                CA:FALSE
            Netscape Comment: 
                OpenSSL Generated Certificate
            X509v3 Subject Key Identifier: 
                D1:6B:30:AF:4D:31:9F:B6:95:E9:39:4C:B5:9D:BE:14:E2:29:EA:90
            X509v3 Authority Key Identifier: 
                keyid:4A:C7:54:B5:EC:14:00:A8:0B:C0:38:18:40:F5:6F:B3:91:EA:CA:2C

    Signature Algorithm: ecdsa-with-SHA256
         30:81:87:02:41:35:cd:f6:f4:0d:14:7a:39:d5:27:66:c4:ce:
         a8:7f:dd:d1:00:13:6f:df:aa:71:e3:cd:f3:62:a2:0d:a9:6b:
         d2:23:2a:92:19:d4:98:3b:29:ff:a6:d1:03:8c:96:b0:fa:68:
         52:e1:9b:ff:16:81:d0:91:a3:f9:cc:0b:ba:e7:d8:d9:02:42:
         01:76:24:f9:7d:05:69:41:b8:94:6b:5b:e1:12:b6:c6:1c:8a:
         5c:1e:7e:21:8a:de:5e:46:32:e1:6f:3a:54:cc:02:52:18:d8:
         4e:dd:e9:65:16:05:2d:bd:8a:f7:8f:e8:8d:1f:bc:58:8e:30:
         1a:6f:e2:a9:be:e6:b2:20:40:34:4f:b9
-----BEGIN CERTIFICATE-----
MIICQzCCAaWgAwIBAgIEEjRWfDAKBggqhkjOPQQDAjAmMSQwIgYDVQQDDBtTUksy
X3NoYTI1Nl9zZWNwNTIxcjFfdjNfY2EwHhcNMjIwNDEyMjA1MTM5WhcNMzIwNDA5
MjA1MTM5WjApMScwJQYDVQQDDB5DU0YyXzFfc2hhMjU2X3NlY3A1MjFyMV92M191
c3IwgZswEAYHKoZIzj0CAQYFK4EEACMDgYYABAFwlEpCK/5uCzEO5sRKMHMGZtWw
KdiZ739B1aLQT5jsRv6WoXigSr5bz21XeNoyVn2e1QJyh13IeKmzMbBD5RdUmgF5
DrQu7v7QxscAy2i9mwAHs9ca3lH7rRDy27OSMxilLo8SFeWFQ5e9UgpOckgjugm8
GoziRQSN4DxmSaZFExRxkqN7MHkwCQYDVR0TBAIwADAsBglghkgBhvhCAQ0EHxYd
T3BlblNTTCBHZW5lcmF0ZWQgQ2VydGlmaWNhdGUwHQYDVR0OBBYEFNFrMK9NMZ+2
lek5TLWdvhTiKeqQMB8GA1UdIwQYMBaAFErHVLXsFACoC8A4GED1b7OR6sosMAoG
CCqGSM49BAMCA4GLADCBhwJBNc329A0UejnVJ2bEzqh/3dEAE2/fqnHjzfNiog2p
a9IjKpIZ1Jg7Kf+m0QOMlrD6aFLhm/8WgdCRo/nMC7rn2NkCQgF2JPl9BWlBuJRr
W+EStsYcilwefiGK3l5GMuFvOlTMAlIY2E7d6WUWBS29iveP6I0fvFiOMBpv4qm+
5rIgQDRPuQ==
-----END CERTIFICATE-----
