Certificate:
    Data:
        Version: 3 (0x2)
        Serial Number: 305419906 (0x12345682)
        Signature Algorithm: ecdsa-with-SHA256
        Issuer: CN=SRK4_sha256_secp521r1_v3_ca
        Validity
            Not Before: Apr 12 20:51:39 2022 GMT
            Not After : Apr  9 20:51:39 2032 GMT
        Subject: CN=CSF4_1_sha256_secp521r1_v3_usr
        Subject Public Key Info:
            Public Key Algorithm: id-ecPublicKey
                Public-Key: (521 bit)
                pub:
                    04:00:25:f3:98:c2:6b:9b:32:5c:27:39:ad:4d:f1:
                    47:f4:8e:1f:05:48:3f:99:85:78:b0:c8:bf:0c:33:
                    8d:d8:a3:46:d1:5d:f4:7b:4f:5f:34:6d:80:fd:19:
                    7f:61:6f:84:a1:75:e8:c7:68:ee:0e:82:74:eb:69:
                    5a:23:16:78:fd:04:11:00:aa:ac:64:84:47:8d:54:
                    47:3b:df:10:5b:ae:87:82:e0:53:42:3d:1e:bb:72:
                    be:6c:1a:d4:e2:04:aa:a2:fb:7d:cc:b7:47:11:1f:
                    0a:1a:e9:18:58:1f:82:81:ca:dc:42:da:53:e0:98:
                    cb:4a:6a:a0:6a:87:32:95:cf:b8:f1:65:b3
                ASN1 OID: secp521r1
                NIST CURVE: P-521
        X509v3 extensions:
            X509v3 Basic Constraints: 
                CA:FALSE
            Netscape Comment: 
                OpenSSL Generated Certificate
            X509v3 Subject Key Identifier: 
                2E:1F:76:77:BB:5A:AF:B0:33:FC:C2:56:DB:7C:C8:E3:70:8E:67:98
            X509v3 Authority Key Identifier: 
                keyid:45:23:3E:12:CB:2E:2E:5F:41:CF:CD:26:BE:2F:BA:C7:DC:63:2B:4C

    Signature Algorithm: ecdsa-with-SHA256
         30:81:87:02:42:01:56:68:e6:0a:1b:b8:53:6b:af:ab:68:62:
         96:88:18:7c:b6:53:c7:4f:33:88:35:55:09:6f:81:00:98:0a:
         f7:26:43:1c:7d:b3:6a:1d:a5:80:49:90:7c:f5:25:7b:aa:f2:
         13:ce:52:d4:2d:36:d0:fa:c0:29:90:9e:f6:69:76:c5:55:02:
         41:42:fb:f7:74:6c:d5:31:66:41:42:b6:dc:09:2b:b0:e6:6a:
         a1:7c:d5:4f:59:00:66:29:f3:d7:33:a7:57:ee:67:78:55:1c:
         cf:90:5b:8a:4d:73:3f:26:b2:5d:08:1e:84:78:dd:ef:71:ba:
         8a:61:9c:ed:68:b9:47:4b:43:24:5e:9e
-----BEGIN CERTIFICATE-----
MIICQzCCAaWgAwIBAgIEEjRWgjAKBggqhkjOPQQDAjAmMSQwIgYDVQQDDBtTUks0
X3NoYTI1Nl9zZWNwNTIxcjFfdjNfY2EwHhcNMjIwNDEyMjA1MTM5WhcNMzIwNDA5
MjA1MTM5WjApMScwJQYDVQQDDB5DU0Y0XzFfc2hhMjU2X3NlY3A1MjFyMV92M191
c3IwgZswEAYHKoZIzj0CAQYFK4EEACMDgYYABAAl85jCa5syXCc5rU3xR/SOHwVI
P5mFeLDIvwwzjdijRtFd9HtPXzRtgP0Zf2FvhKF16Mdo7g6CdOtpWiMWeP0EEQCq
rGSER41URzvfEFuuh4LgU0I9Hrtyvmwa1OIEqqL7fcy3RxEfChrpGFgfgoHK3ELa
U+CYy0pqoGqHMpXPuPFls6N7MHkwCQYDVR0TBAIwADAsBglghkgBhvhCAQ0EHxYd
T3BlblNTTCBHZW5lcmF0ZWQgQ2VydGlmaWNhdGUwHQYDVR0OBBYEFC4fdne7Wq+w
M/zCVtt8yONwjmeYMB8GA1UdIwQYMBaAFEUjPhLLLi5fQc/NJr4vusfcYytMMAoG
CCqGSM49BAMCA4GLADCBhwJCAVZo5gobuFNrr6toYpaIGHy2U8dPM4g1VQlvgQCY
CvcmQxx9s2odpYBJkHz1JXuq8hPOUtQtNtD6wCmQnvZpdsVVAkFC+/d0bNUxZkFC
ttwJK7DmaqF81U9ZAGYp89czp1fuZ3hVHM+QW4pNcz8msl0IHoR43e9xuophnO1o
uUdLQyReng==
-----END CERTIFICATE-----
