Certificate:
    Data:
        Version: 3 (0x2)
        Serial Number: 305419901 (0x1234567d)
        Signature Algorithm: ecdsa-with-SHA256
        Issuer: CN=SRK2_sha256_secp521r1_v3_ca
        Validity
            Not Before: Apr 12 20:51:39 2022 GMT
            Not After : Apr  9 20:51:39 2032 GMT
        Subject: CN=IMG2_1_sha256_secp521r1_v3_usr
        Subject Public Key Info:
            Public Key Algorithm: id-ecPublicKey
                Public-Key: (521 bit)
                pub:
                    04:01:1c:1a:92:77:98:5b:18:3f:9c:0f:9e:dc:08:
                    66:b4:60:a4:2f:3c:7d:27:c1:19:f7:6b:1e:b7:27:
                    10:ad:81:5d:d5:02:93:de:a4:9e:8a:61:b8:86:8c:
                    bf:a6:54:5f:5f:17:67:88:72:63:33:29:23:fe:80:
                    5b:fd:55:04:f9:99:41:01:62:fe:84:dc:72:37:ec:
                    43:69:56:a8:4e:7d:d2:67:ae:dc:54:27:a4:64:9e:
                    9a:a2:a1:62:8b:93:60:c9:7e:aa:e5:b1:97:5e:f3:
                    77:b3:b4:f6:6c:3a:5c:7e:e1:bc:d7:59:87:fe:56:
                    74:34:c7:51:a4:43:8d:29:50:81:c6:43:73
                ASN1 OID: secp521r1
                NIST CURVE: P-521
        X509v3 extensions:
            X509v3 Basic Constraints: 
                CA:FALSE
            Netscape Comment: 
                OpenSSL Generated Certificate
            X509v3 Subject Key Identifier: 
                37:74:21:E4:A3:1E:16:EC:3B:EB:04:17:83:CA:69:43:CC:77:48:09
            X509v3 Authority Key Identifier: 
                keyid:4A:C7:54:B5:EC:14:00:A8:0B:C0:38:18:40:F5:6F:B3:91:EA:CA:2C

    Signature Algorithm: ecdsa-with-SHA256
         30:81:86:02:41:72:26:fc:3e:4b:a0:33:d1:98:6e:c1:a1:27:
         03:ab:16:a5:1c:2b:fd:1f:f8:21:9a:17:d9:85:34:42:fc:a5:
         03:ea:16:e1:17:ce:2c:56:15:32:b2:ad:8a:e8:6b:c5:ab:45:
         8b:f1:eb:93:ef:7a:c9:ce:93:16:0e:c0:99:2e:5e:e0:02:41:
         41:9b:c7:a9:34:e0:56:af:e3:dc:e8:a7:0b:85:dd:e3:2e:14:
         79:5b:e4:83:b1:59:7a:f7:54:09:17:fa:97:21:f5:51:40:5d:
         5b:4c:2a:4d:01:f5:2e:f2:84:34:c7:60:a5:fe:8d:c8:3a:c8:
         20:72:41:62:72:05:0c:83:36:5a:48
-----BEGIN CERTIFICATE-----
MIICQjCCAaWgAwIBAgIEEjRWfTAKBggqhkjOPQQDAjAmMSQwIgYDVQQDDBtTUksy
X3NoYTI1Nl9zZWNwNTIxcjFfdjNfY2EwHhcNMjIwNDEyMjA1MTM5WhcNMzIwNDA5
MjA1MTM5WjApMScwJQYDVQQDDB5JTUcyXzFfc2hhMjU2X3NlY3A1MjFyMV92M191
c3IwgZswEAYHKoZIzj0CAQYFK4EEACMDgYYABAEcGpJ3mFsYP5wPntwIZrRgpC88
fSfBGfdrHrcnEK2BXdUCk96knophuIaMv6ZUX18XZ4hyYzMpI/6AW/1VBPmZQQFi
/oTccjfsQ2lWqE590meu3FQnpGSemqKhYouTYMl+quWxl17zd7O09mw6XH7hvNdZ
h/5WdDTHUaRDjSlQgcZDc6N7MHkwCQYDVR0TBAIwADAsBglghkgBhvhCAQ0EHxYd
T3BlblNTTCBHZW5lcmF0ZWQgQ2VydGlmaWNhdGUwHQYDVR0OBBYEFDd0IeSjHhbs
O+sEF4PKaUPMd0gJMB8GA1UdIwQYMBaAFErHVLXsFACoC8A4GED1b7OR6sosMAoG
CCqGSM49BAMCA4GKADCBhgJBcib8PkugM9GYbsGhJwOrFqUcK/0f+CGaF9mFNEL8
pQPqFuEXzixWFTKyrYroa8WrRYvx65PvesnOkxYOwJkuXuACQUGbx6k04Fav49zo
pwuF3eMuFHlb5IOxWXr3VAkX+pch9VFAXVtMKk0B9S7yhDTHYKX+jcg6yCByQWJy
BQyDNlpI
-----END CERTIFICATE-----
