Certificate:
    Data:
        Version: 3 (0x2)
        Serial Number: 305419896 (0x12345678)
        Signature Algorithm: ecdsa-with-SHA256
        Issuer: CN=CA1_sha256_secp521r1_v3_ca
        Validity
            Not Before: Apr 12 20:51:38 2022 GMT
            Not After : Apr  9 20:51:38 2032 GMT
        Subject: CN=SRK1_sha256_secp521r1_v3_ca
        Subject Public Key Info:
            Public Key Algorithm: id-ecPublicKey
                Public-Key: (521 bit)
                pub:
                    04:00:9d:1e:9e:99:4b:f8:c0:95:0e:a7:f1:ef:00:
                    b9:b7:48:ee:0c:6c:cc:0d:f1:2e:82:19:42:bc:33:
                    48:0b:5f:3f:cd:7c:da:e1:c9:f1:f5:6c:01:38:10:
                    eb:19:54:e9:b0:5e:63:1c:5d:97:be:d7:92:1c:bc:
                    c1:11:30:8f:25:a7:02:01:e5:5d:82:a2:26:3f:8c:
                    63:4b:40:7b:ab:60:a5:a8:40:17:d3:b3:55:f6:bd:
                    3a:59:b4:6d:a8:85:4a:53:d1:2c:de:3b:1e:dd:85:
                    da:7b:1d:0d:34:b4:17:ff:dd:c0:22:c5:6f:b2:a6:
                    73:cc:eb:b3:36:6d:db:3b:08:9b:16:ce:3c
                ASN1 OID: secp521r1
                NIST CURVE: P-521
        X509v3 extensions:
            X509v3 Subject Key Identifier: 
                1A:AB:EE:F8:CA:25:1B:FD:BE:BB:E8:BC:02:9A:41:88:F9:23:49:00
            X509v3 Authority Key Identifier: 
                keyid:47:F7:57:FB:17:69:51:1C:6D:29:C2:D5:E7:DF:3B:97:30:35:24:03
                DirName:/CN=CA1_sha256_secp521r1_v3_ca
                serial:38:BD:27:A6:61:E1:F3:3F:80:AB:96:45:72:E4:10:8F:E1:2B:0B:C0

            X509v3 Basic Constraints: critical
                CA:TRUE
            X509v3 Key Usage: 
                Certificate Sign
    Signature Algorithm: ecdsa-with-SHA256
         30:81:88:02:42:00:9c:07:76:a0:2f:49:d5:dc:dd:a3:f7:2d:
         5a:64:ae:26:0f:6b:10:fa:06:1a:c2:25:61:4d:06:cd:ef:87:
         44:86:84:8d:f0:0b:b4:fd:7b:b8:22:84:d9:7b:0d:5e:d6:a8:
         9e:2b:c2:f3:41:78:dd:06:31:ec:4a:0d:a3:0d:d5:8a:4b:02:
         42:01:c9:66:ec:a2:79:12:60:1c:7d:af:de:4b:2e:07:85:38:
         3d:2b:3f:1a:9f:4e:9f:1a:cf:7b:8e:e1:e4:9c:5e:f2:71:2c:
         a1:74:74:2c:02:55:fe:58:56:e3:11:3c:53:df:1f:40:a5:67:
         e5:33:86:7c:79:db:c8:62:91:03:f0:b0:68
-----BEGIN CERTIFICATE-----
MIICaDCCAcmgAwIBAgIEEjRWeDAKBggqhkjOPQQDAjAlMSMwIQYDVQQDFBpDQTFf
c2hhMjU2X3NlY3A1MjFyMV92M19jYTAeFw0yMjA0MTIyMDUxMzhaFw0zMjA0MDky
MDUxMzhaMCYxJDAiBgNVBAMMG1NSSzFfc2hhMjU2X3NlY3A1MjFyMV92M19jYTCB
mzAQBgcqhkjOPQIBBgUrgQQAIwOBhgAEAJ0enplL+MCVDqfx7wC5t0juDGzMDfEu
ghlCvDNIC18/zXza4cnx9WwBOBDrGVTpsF5jHF2XvteSHLzBETCPJacCAeVdgqIm
P4xjS0B7q2ClqEAX07NV9r06WbRtqIVKU9Es3jse3YXaex0NNLQX/93AIsVvsqZz
zOuzNm3bOwibFs48o4GiMIGfMB0GA1UdDgQWBBQaq+74yiUb/b676LwCmkGI+SNJ
ADBgBgNVHSMEWTBXgBRH91f7F2lRHG0pwtXn3zuXMDUkA6EppCcwJTEjMCEGA1UE
AxQaQ0ExX3NoYTI1Nl9zZWNwNTIxcjFfdjNfY2GCFDi9J6Zh4fM/gKuWRXLkEI/h
KwvAMA8GA1UdEwEB/wQFMAMBAf8wCwYDVR0PBAQDAgIEMAoGCCqGSM49BAMCA4GM
ADCBiAJCAJwHdqAvSdXc3aP3LVpkriYPaxD6BhrCJWFNBs3vh0SGhI3wC7T9e7gi
hNl7DV7WqJ4rwvNBeN0GMexKDaMN1YpLAkIByWbsonkSYBx9r95LLgeFOD0rPxqf
Tp8az3uO4eScXvJxLKF0dCwCVf5YVuMRPFPfH0ClZ+Uzhnx528hikQPwsGg=
-----END CERTIFICATE-----
