Certificate:
    Data:
        Version: 3 (0x2)
        Serial Number:
            8c:b6:d7:ee:b8:bf:c1:e2:20:ab:8b:86:8a:6e:37:76
        Signature Algorithm: sha256WithRSAEncryption
        Issuer: CN=Easy-RSA CA
        Validity
            Not Before: Apr 17 08:20:27 2025 GMT
            Not After : Apr 12 08:20:27 2045 GMT
        Subject: CN=sensor
        Subject Public Key Info:
            Public Key Algorithm: rsaEncryption
                Public-Key: (2048 bit)
                Modulus:
                    00:c2:e1:5d:91:03:fc:a2:ee:ef:0e:2e:d2:ed:61:
                    09:45:47:1f:03:24:b8:a6:b3:cf:cf:3c:eb:65:af:
                    82:45:bd:09:ab:45:01:63:b1:53:5a:41:f4:48:96:
                    ab:57:4e:5a:95:60:be:7d:23:14:e5:13:cb:0f:c7:
                    1d:e1:53:8b:54:78:8d:e5:18:87:65:c1:1c:ee:55:
                    ff:b7:a8:46:96:58:aa:34:fd:b2:c2:66:72:27:91:
                    f7:d4:35:2e:f8:bb:0e:7d:ac:5f:52:ca:0c:f6:8a:
                    f1:09:4c:c6:fd:7a:00:1b:65:09:1e:ae:86:e7:13:
                    49:7c:a0:ca:ed:86:a7:e9:59:ca:15:26:72:51:c9:
                    68:35:35:61:d9:29:49:ae:df:7b:c5:71:66:16:d3:
                    65:41:63:13:f1:c0:25:69:16:35:1e:cc:dd:d7:5f:
                    37:60:db:9f:f6:3a:c2:60:65:d5:e3:0e:ba:8b:75:
                    78:77:d9:c9:12:56:4c:02:6b:c6:97:30:b2:af:58:
                    a7:e7:02:c8:ee:33:21:93:13:3d:89:e5:b5:43:bd:
                    e6:6d:6d:eb:dd:e2:6d:31:67:69:24:22:cb:49:48:
                    69:7d:c3:f8:16:fb:f1:79:6d:f2:67:02:7d:9c:75:
                    fc:66:53:21:df:7b:4c:59:1d:fb:09:72:37:a7:18:
                    2d:ef
                Exponent: 65537 (0x10001)
        X509v3 extensions:
            X509v3 Basic Constraints: 
                CA:FALSE
            X509v3 Subject Key Identifier: 
                77:20:48:A7:D5:BE:C1:A5:D3:99:04:DF:3F:08:CE:3C:1D:25:B6:70
            X509v3 Authority Key Identifier: 
                keyid:34:EC:19:EC:67:0A:37:D9:65:31:FD:6A:33:65:07:C4:72:28:BC:02
                DirName:/CN=Easy-RSA CA
                serial:46:7C:15:5D:FC:AE:3E:FC:B7:C1:22:17:1E:2E:CE:06:26:50:39:18
            X509v3 Extended Key Usage: 
                TLS Web Server Authentication
            X509v3 Key Usage: 
                Digital Signature, Key Encipherment
            X509v3 Subject Alternative Name: 
                DNS:irma6-DEV, IP Address:192.168.240.254, IP Address:172.16.0.10, IP Address:10.42.0.70
    Signature Algorithm: sha256WithRSAEncryption
    Signature Value:
        75:a1:15:ef:c9:0b:1c:9c:78:95:cb:6c:0a:1c:93:af:f6:1c:
        5d:21:7c:da:a8:b9:ae:51:77:a3:02:c8:eb:c2:33:24:23:d3:
        d9:83:c1:f9:19:62:f7:99:8d:17:8d:d3:ad:81:f3:e5:37:12:
        0b:28:67:d7:dc:55:32:34:4b:78:39:e7:2c:38:16:26:5c:d8:
        ca:48:e2:b2:0f:bf:32:07:f6:d0:16:b8:76:85:da:57:be:34:
        5a:87:9f:d2:ca:ab:42:24:5e:a5:fb:18:67:5b:9c:46:ed:30:
        f5:25:36:b2:29:61:e7:ce:4f:dc:ce:61:83:b4:77:a8:37:43:
        d0:76:4f:d1:79:64:1a:d4:4c:87:95:d8:df:2a:5f:51:d1:4c:
        17:8b:c4:28:0e:ab:12:f3:a9:ab:ed:63:e0:34:e7:42:de:b9:
        78:c4:eb:bb:ef:7c:c6:d2:89:87:9c:c9:fe:36:b2:9a:50:38:
        ef:27:9d:d5:9d:5b:10:6e:40:16:58:dd:fe:63:ed:0f:8c:4b:
        58:62:15:3a:fc:7e:e8:e7:8e:a6:aa:31:e1:23:b4:c1:f6:cd:
        da:f6:23:22:b4:1d:28:c7:cd:ad:53:e2:1c:89:0a:19:6f:96:
        1e:b9:c6:14:af:03:52:43:b0:c9:99:d9:54:40:f9:b4:bd:e3:
        b6:38:23:1a
-----BEGIN CERTIFICATE-----
MIIDfTCCAmWgAwIBAgIRAIy21+64v8HiIKuLhopuN3YwDQYJKoZIhvcNAQELBQAw
FjEUMBIGA1UEAwwLRWFzeS1SU0EgQ0EwHhcNMjUwNDE3MDgyMDI3WhcNNDUwNDEy
MDgyMDI3WjARMQ8wDQYDVQQDDAZzZW5zb3IwggEiMA0GCSqGSIb3DQEBAQUAA4IB
DwAwggEKAoIBAQDC4V2RA/yi7u8OLtLtYQlFRx8DJLims8/PPOtlr4JFvQmrRQFj
sVNaQfRIlqtXTlqVYL59IxTlE8sPxx3hU4tUeI3lGIdlwRzuVf+3qEaWWKo0/bLC
ZnInkffUNS74uw59rF9Sygz2ivEJTMb9egAbZQkerobnE0l8oMrthqfpWcoVJnJR
yWg1NWHZKUmu33vFcWYW02VBYxPxwCVpFjUezN3XXzdg25/2OsJgZdXjDrqLdXh3
2ckSVkwCa8aXMLKvWKfnAsjuMyGTEz2J5bVDveZtbevd4m0xZ2kkIstJSGl9w/gW
+/F5bfJnAn2cdfxmUyHfe0xZHfsJcjenGC3vAgMBAAGjgcowgccwCQYDVR0TBAIw
ADAdBgNVHQ4EFgQUdyBIp9W+waXTmQTfPwjOPB0ltnAwUQYDVR0jBEowSIAUNOwZ
7GcKN9llMf1qM2UHxHIovAKhGqQYMBYxFDASBgNVBAMMC0Vhc3ktUlNBIENBghRG
fBVd/K4+/LfBIhceLs4GJlA5GDATBgNVHSUEDDAKBggrBgEFBQcDATALBgNVHQ8E
BAMCBaAwJgYDVR0RBB8wHYIJaXJtYTYtREVWhwTAqPD+hwSsEAAKhwQKKgBGMA0G
CSqGSIb3DQEBCwUAA4IBAQB1oRXvyQscnHiVy2wKHJOv9hxdIXzaqLmuUXejAsjr
wjMkI9PZg8H5GWL3mY0XjdOtgfPlNxILKGfX3FUyNEt4OecsOBYmXNjKSOKyD78y
B/bQFrh2hdpXvjRah5/SyqtCJF6l+xhnW5xG7TD1JTayKWHnzk/czmGDtHeoN0PQ
dk/ReWQa1EyHldjfKl9R0UwXi8QoDqsS86mr7WPgNOdC3rl4xOu773zG0omHnMn+
NrKaUDjvJ53VnVsQbkAWWN3+Y+0PjEtYYhU6/H7o546mqjHhI7TB9s3a9iMitB0o
x82tU+IciQoZb5YeucYUrwNSQ7DJmdlUQPm0veO2OCMa
-----END CERTIFICATE-----
