Certificate:
    Data:
        Version: 3 (0x2)
        Serial Number: 305419896 (0x12345678)
        Signature Algorithm: ecdsa-with-SHA384
        Issuer: CN=CA1_sha384_secp384r1_v3_ca
        Validity
            Not Before: May  6 12:08:50 2024 GMT
            Not After : May  4 12:08:50 2034 GMT
        Subject: CN=SRK1_sha384_secp384r1_v3_usr
        Subject Public Key Info:
            Public Key Algorithm: id-ecPublicKey
                Public-Key: (384 bit)
                pub:
                    04:8b:39:9f:f4:6a:af:dd:14:0e:1f:ca:91:dc:b1:
                    62:89:23:e9:d6:af:4b:f0:54:5f:9a:29:72:06:1f:
                    67:ee:47:0f:08:81:6a:a8:af:a9:cb:84:49:ca:f6:
                    e2:82:f1:79:00:b2:f9:cb:63:e3:3b:8b:98:6a:11:
                    fb:33:56:6f:c4:4d:68:5f:28:18:d7:90:a0:74:33:
                    41:5f:04:35:69:1b:a2:d6:a2:49:75:6d:16:45:56:
                    67:21:17:dc:b3:cc:1f
                ASN1 OID: secp384r1
                NIST CURVE: P-384
        X509v3 extensions:
            X509v3 Basic Constraints: 
                CA:FALSE
            Netscape Comment: 
                OpenSSL Generated Certificate
            X509v3 Subject Key Identifier: 
                E4:BF:0B:07:A4:F4:42:7C:16:7A:96:41:D7:42:B8:E9:05:57:D4:67
            X509v3 Authority Key Identifier: 
                39:C5:1A:DD:23:6D:17:C3:9A:BF:23:E2:CA:D9:91:C9:3B:5A:B9:97
    Signature Algorithm: ecdsa-with-SHA384
    Signature Value:
        30:64:02:30:2f:2d:4b:ac:14:eb:be:53:fb:fd:33:67:82:7c:
        e0:93:8c:2c:c3:b1:95:58:ac:e0:a6:29:1e:d0:61:57:6a:51:
        77:ad:b4:f6:27:4f:89:3e:29:0e:04:50:e1:1e:10:68:02:30:
        15:25:de:b2:65:ca:06:68:37:00:f2:df:17:a9:13:9c:8e:97:
        19:83:f4:f5:ce:ae:f4:04:49:8b:e7:9d:95:a6:e2:63:6d:40:
        11:04:48:7a:b3:82:ff:1b:68:ba:e3:52
-----BEGIN CERTIFICATE-----
MIIB9TCCAXygAwIBAgIEEjRWeDAKBggqhkjOPQQDAzAlMSMwIQYDVQQDFBpDQTFf
c2hhMzg0X3NlY3AzODRyMV92M19jYTAeFw0yNDA1MDYxMjA4NTBaFw0zNDA1MDQx
MjA4NTBaMCcxJTAjBgNVBAMMHFNSSzFfc2hhMzg0X3NlY3AzODRyMV92M191c3Iw
djAQBgcqhkjOPQIBBgUrgQQAIgNiAASLOZ/0aq/dFA4fypHcsWKJI+nWr0vwVF+a
KXIGH2fuRw8IgWqor6nLhEnK9uKC8XkAsvnLY+M7i5hqEfszVm/ETWhfKBjXkKB0
M0FfBDVpG6LWokl1bRZFVmchF9yzzB+jezB5MAkGA1UdEwQCMAAwLAYJYIZIAYb4
QgENBB8WHU9wZW5TU0wgR2VuZXJhdGVkIENlcnRpZmljYXRlMB0GA1UdDgQWBBTk
vwsHpPRCfBZ6lkHXQrjpBVfUZzAfBgNVHSMEGDAWgBQ5xRrdI20Xw5q/I+LK2ZHJ
O1q5lzAKBggqhkjOPQQDAwNnADBkAjAvLUusFOu+U/v9M2eCfOCTjCzDsZVYrOCm
KR7QYVdqUXettPYnT4k+KQ4EUOEeEGgCMBUl3rJlygZoNwDy3xepE5yOlxmD9PXO
rvQESYvnnZWm4mNtQBEESHqzgv8baLrjUg==
-----END CERTIFICATE-----
