Certificate:
    Data:
        Version: 3 (0x2)
        Serial Number: 305419898 (0x1234567a)
        Signature Algorithm: ecdsa-with-SHA384
        Issuer: CN=CA1_sha384_secp384r1_v3_ca
        Validity
            Not Before: May  6 12:08:50 2024 GMT
            Not After : May  4 12:08:50 2034 GMT
        Subject: CN=SRK3_sha384_secp384r1_v3_usr
        Subject Public Key Info:
            Public Key Algorithm: id-ecPublicKey
                Public-Key: (384 bit)
                pub:
                    04:ad:55:ae:5d:95:62:3d:fb:eb:5c:b9:dd:ee:6b:
                    ea:76:3d:7c:11:9b:25:c9:90:f7:bf:ad:57:71:6e:
                    e6:c7:3b:e8:04:e3:b8:de:85:f2:4f:b6:02:f8:69:
                    1f:73:94:a9:ff:9a:4f:94:92:db:4e:41:6c:52:86:
                    d3:b7:be:e8:ff:fe:11:79:ff:69:c4:b1:17:91:94:
                    98:bd:f7:20:71:8c:f0:6b:a1:19:5d:a9:bc:c8:f0:
                    32:52:b8:0f:ab:3d:42
                ASN1 OID: secp384r1
                NIST CURVE: P-384
        X509v3 extensions:
            X509v3 Basic Constraints: 
                CA:FALSE
            Netscape Comment: 
                OpenSSL Generated Certificate
            X509v3 Subject Key Identifier: 
                FE:59:4C:1B:2B:A7:E0:F9:F0:E1:9F:E2:20:4D:DA:6E:38:E3:68:20
            X509v3 Authority Key Identifier: 
                39:C5:1A:DD:23:6D:17:C3:9A:BF:23:E2:CA:D9:91:C9:3B:5A:B9:97
    Signature Algorithm: ecdsa-with-SHA384
    Signature Value:
        30:65:02:30:15:8b:1f:f2:0f:a2:82:d1:af:cd:49:4a:61:1f:
        5d:86:1c:b0:16:4c:12:dc:65:3f:84:38:3d:e5:a8:cc:fd:7c:
        0d:07:52:f1:39:53:79:c2:c2:79:51:1a:dc:1d:96:b0:02:31:
        00:c0:2a:ce:cb:0a:cb:02:5b:19:7e:3d:71:de:00:e7:f3:6f:
        03:cf:d2:dd:58:24:63:1c:87:58:da:11:f9:58:ba:36:05:e0:
        57:1e:7d:e8:88:4a:69:7f:2b:f6:6a:54:e0
-----BEGIN CERTIFICATE-----
MIIB9jCCAXygAwIBAgIEEjRWejAKBggqhkjOPQQDAzAlMSMwIQYDVQQDFBpDQTFf
c2hhMzg0X3NlY3AzODRyMV92M19jYTAeFw0yNDA1MDYxMjA4NTBaFw0zNDA1MDQx
MjA4NTBaMCcxJTAjBgNVBAMMHFNSSzNfc2hhMzg0X3NlY3AzODRyMV92M191c3Iw
djAQBgcqhkjOPQIBBgUrgQQAIgNiAAStVa5dlWI9++tcud3ua+p2PXwRmyXJkPe/
rVdxbubHO+gE47jehfJPtgL4aR9zlKn/mk+UkttOQWxShtO3vuj//hF5/2nEsReR
lJi99yBxjPBroRldqbzI8DJSuA+rPUKjezB5MAkGA1UdEwQCMAAwLAYJYIZIAYb4
QgENBB8WHU9wZW5TU0wgR2VuZXJhdGVkIENlcnRpZmljYXRlMB0GA1UdDgQWBBT+
WUwbK6fg+fDhn+IgTdpuOONoIDAfBgNVHSMEGDAWgBQ5xRrdI20Xw5q/I+LK2ZHJ
O1q5lzAKBggqhkjOPQQDAwNoADBlAjAVix/yD6KC0a/NSUphH12GHLAWTBLcZT+E
OD3lqMz9fA0HUvE5U3nCwnlRGtwdlrACMQDAKs7LCssCWxl+PXHeAOfzbwPP0t1Y
JGMch1jaEflYujYF4FcefeiISml/K/ZqVOA=
-----END CERTIFICATE-----
