Certificate:
    Data:
        Version: 3 (0x2)
        Serial Number: 2410732711 (0x8fb0dca7)
        Signature Algorithm: ecdsa-with-SHA512
        Issuer: CN=SRK1_sha512_secp521r1_v3_ca
        Validity
            Not Before: Nov  8 19:02:42 2024 GMT
            Not After : Oct 27 19:02:42 2074 GMT
        Subject: CN=SGK1_1_sha512_secp521r1_v3_usr
        Subject Public Key Info:
            Public Key Algorithm: id-ecPublicKey
                Public-Key: (521 bit)
                pub:
                    04:01:15:fd:5f:53:f4:df:50:9f:5c:78:17:ea:a9:
                    48:27:57:a5:18:34:18:de:13:f6:c3:34:42:22:72:
                    19:5a:25:6f:65:41:d6:f1:7b:87:30:e7:38:15:ca:
                    6a:8a:2e:36:92:4e:4b:46:92:7b:e8:13:ba:81:e0:
                    0a:e2:e4:cc:3f:b0:bb:01:79:68:6e:c5:2f:ff:e9:
                    13:bc:30:5f:f2:98:15:8f:48:09:5a:56:e0:a5:0a:
                    db:57:80:31:48:5d:1d:77:1c:23:4d:8c:2d:13:67:
                    6d:5f:de:94:1c:bf:39:de:a2:fe:8b:99:48:7e:a1:
                    fc:1e:da:96:04:92:00:9f:7e:3b:ed:39:d5
                ASN1 OID: secp521r1
                NIST CURVE: P-521
        X509v3 extensions:
            X509v3 Basic Constraints: 
                CA:FALSE
            Netscape Comment: 
                OpenSSL Generated Certificate
            X509v3 Subject Key Identifier: 
                DD:CB:42:8B:F6:29:26:50:99:D5:6C:11:ED:2E:5F:97:39:0C:44:EC
            X509v3 Authority Key Identifier: 
                keyid:5A:C0:33:D5:D8:DE:2F:98:43:E0:4F:1B:40:60:E7:CC:D3:43:64:23

    Signature Algorithm: ecdsa-with-SHA512
         30:81:87:02:41:04:cb:e9:37:aa:37:da:e0:35:55:db:af:f5:
         8c:14:ba:89:2b:62:58:6b:3c:26:fc:18:6b:0d:56:07:0e:28:
         b9:27:c4:10:75:b5:3a:ca:11:4a:0d:4a:32:1e:f1:4a:b4:21:
         d6:f1:55:20:89:df:be:df:32:8e:97:cf:0b:b8:90:77:02:42:
         00:98:a2:54:0f:cf:c8:41:03:52:da:1e:35:62:70:cd:1f:b2:
         3f:5f:3a:ee:9b:94:b7:f8:19:9a:82:85:1e:9e:08:bd:d3:89:
         f0:3b:37:ed:ab:d4:10:9b:48:4f:c3:5e:a3:a6:14:db:71:35:
         3f:86:ff:6c:0a:f6:2e:58:47:ea:6a:90
-----BEGIN CERTIFICATE-----
MIICRjCCAaigAwIBAgIFAI+w3KcwCgYIKoZIzj0EAwQwJjEkMCIGA1UEAwwbU1JL
MV9zaGE1MTJfc2VjcDUyMXIxX3YzX2NhMCAXDTI0MTEwODE5MDI0MloYDzIwNzQx
MDI3MTkwMjQyWjApMScwJQYDVQQDDB5TR0sxXzFfc2hhNTEyX3NlY3A1MjFyMV92
M191c3IwgZswEAYHKoZIzj0CAQYFK4EEACMDgYYABAEV/V9T9N9Qn1x4F+qpSCdX
pRg0GN4T9sM0QiJyGVolb2VB1vF7hzDnOBXKaoouNpJOS0aSe+gTuoHgCuLkzD+w
uwF5aG7FL//pE7wwX/KYFY9ICVpW4KUK21eAMUhdHXccI02MLRNnbV/elBy/Od6i
/ouZSH6h/B7algSSAJ9+O+051aN7MHkwCQYDVR0TBAIwADAsBglghkgBhvhCAQ0E
HxYdT3BlblNTTCBHZW5lcmF0ZWQgQ2VydGlmaWNhdGUwHQYDVR0OBBYEFN3LQov2
KSZQmdVsEe0uX5c5DETsMB8GA1UdIwQYMBaAFFrAM9XY3i+YQ+BPG0Bg58zTQ2Qj
MAoGCCqGSM49BAMEA4GLADCBhwJBBMvpN6o32uA1Vduv9YwUuokrYlhrPCb8GGsN
VgcOKLknxBB1tTrKEUoNSjIe8Uq0IdbxVSCJ377fMo6Xzwu4kHcCQgCYolQPz8hB
A1LaHjVicM0fsj9fOu6blLf4GZqChR6eCL3TifA7N+2r1BCbSE/DXqOmFNtxNT+G
/2wK9i5YR+pqkA==
-----END CERTIFICATE-----
