Certificate:
    Data:
        Version: 3 (0x2)
        Serial Number: 2410732713 (0x8fb0dca9)
        Signature Algorithm: ecdsa-with-SHA512
        Issuer: CN=SRK2_sha512_secp521r1_v3_ca
        Validity
            Not Before: Nov  8 19:02:43 2024 GMT
            Not After : Oct 27 19:02:43 2074 GMT
        Subject: CN=SGK2_1_sha512_secp521r1_v3_usr
        Subject Public Key Info:
            Public Key Algorithm: id-ecPublicKey
                Public-Key: (521 bit)
                pub:
                    04:00:2b:51:ef:40:f7:76:bf:fb:a3:11:a5:f0:5f:
                    d0:a9:66:fb:a5:0f:5a:3a:a1:35:dc:79:24:9d:d6:
                    6a:dc:56:2f:02:93:09:19:a1:9f:8e:10:10:cd:7b:
                    29:82:df:e8:f3:33:25:48:b1:8d:72:35:ec:2b:08:
                    50:c8:0e:76:87:92:5d:00:eb:05:64:ea:e3:4d:fc:
                    7d:a4:af:86:6a:e2:9e:47:60:f2:8b:51:5c:b3:66:
                    00:fd:42:07:cd:14:39:1f:31:7c:e3:86:57:22:be:
                    ba:1c:89:bd:19:92:16:92:29:9a:b2:6e:ac:83:7e:
                    b7:81:0a:65:c5:5a:86:76:1f:d1:f7:3b:7d
                ASN1 OID: secp521r1
                NIST CURVE: P-521
        X509v3 extensions:
            X509v3 Basic Constraints: 
                CA:FALSE
            Netscape Comment: 
                OpenSSL Generated Certificate
            X509v3 Subject Key Identifier: 
                02:3C:DC:1A:15:CB:33:39:4C:65:46:08:51:9B:00:99:9C:AE:10:1E
            X509v3 Authority Key Identifier: 
                keyid:C2:B4:65:44:51:99:24:3C:84:FE:6A:EA:3F:25:41:4D:0E:AE:70:64

    Signature Algorithm: ecdsa-with-SHA512
         30:81:88:02:42:00:86:25:94:3d:c5:b7:98:c1:61:63:8f:d1:
         9d:d8:ac:90:8f:e6:20:42:e8:9b:90:5b:4d:38:4e:e8:44:6d:
         2e:15:e5:4a:b8:69:d7:54:ea:40:43:e5:76:56:6d:5b:d8:04:
         cb:4f:0b:70:a6:28:2f:1f:0f:25:af:22:bd:ea:ed:85:09:02:
         42:01:be:d6:6a:6a:36:73:db:89:06:3f:98:7b:d7:ba:85:fc:
         2f:ab:61:f5:d4:82:7b:ce:d7:81:26:80:e7:0f:90:86:8f:aa:
         e6:cf:7f:71:06:5e:37:c3:78:bb:7e:05:44:5f:c2:7d:da:c1:
         5c:b6:e7:a3:06:62:57:c5:7d:2e:64:4b:c9
-----BEGIN CERTIFICATE-----
MIICRzCCAaigAwIBAgIFAI+w3KkwCgYIKoZIzj0EAwQwJjEkMCIGA1UEAwwbU1JL
Ml9zaGE1MTJfc2VjcDUyMXIxX3YzX2NhMCAXDTI0MTEwODE5MDI0M1oYDzIwNzQx
MDI3MTkwMjQzWjApMScwJQYDVQQDDB5TR0syXzFfc2hhNTEyX3NlY3A1MjFyMV92
M191c3IwgZswEAYHKoZIzj0CAQYFK4EEACMDgYYABAArUe9A93a/+6MRpfBf0Klm
+6UPWjqhNdx5JJ3WatxWLwKTCRmhn44QEM17KYLf6PMzJUixjXI17CsIUMgOdoeS
XQDrBWTq4038faSvhmrinkdg8otRXLNmAP1CB80UOR8xfOOGVyK+uhyJvRmSFpIp
mrJurIN+t4EKZcVahnYf0fc7faN7MHkwCQYDVR0TBAIwADAsBglghkgBhvhCAQ0E
HxYdT3BlblNTTCBHZW5lcmF0ZWQgQ2VydGlmaWNhdGUwHQYDVR0OBBYEFAI83BoV
yzM5TGVGCFGbAJmcrhAeMB8GA1UdIwQYMBaAFMK0ZURRmSQ8hP5q6j8lQU0OrnBk
MAoGCCqGSM49BAMEA4GMADCBiAJCAIYllD3Ft5jBYWOP0Z3YrJCP5iBC6JuQW004
TuhEbS4V5Uq4addU6kBD5XZWbVvYBMtPC3CmKC8fDyWvIr3q7YUJAkIBvtZqajZz
24kGP5h717qF/C+rYfXUgnvO14EmgOcPkIaPqubPf3EGXjfDeLt+BURfwn3awVy2
56MGYlfFfS5kS8k=
-----END CERTIFICATE-----
