Certificate:
    Data:
        Version: 3 (0x2)
        Serial Number: 2410732715 (0x8fb0dcab)
        Signature Algorithm: ecdsa-with-SHA512
        Issuer: CN=SRK3_sha512_secp521r1_v3_ca
        Validity
            Not Before: Nov  8 19:02:43 2024 GMT
            Not After : Oct 27 19:02:43 2074 GMT
        Subject: CN=SGK3_1_sha512_secp521r1_v3_usr
        Subject Public Key Info:
            Public Key Algorithm: id-ecPublicKey
                Public-Key: (521 bit)
                pub:
                    04:01:fa:7b:d7:77:d8:65:a5:ac:c2:22:30:66:be:
                    fe:f9:ab:94:b8:2c:fe:73:59:ea:95:e3:2a:06:71:
                    63:f7:2b:bf:94:f5:45:e4:a0:68:9b:30:84:4e:8e:
                    57:e0:3a:d2:85:4d:2a:ca:51:04:81:b7:b7:8f:8b:
                    87:9e:94:5a:56:03:55:00:fd:98:40:e6:cf:0d:82:
                    40:5b:b1:00:f4:b3:1b:e3:5f:4c:69:fa:9c:e0:08:
                    11:64:f5:90:18:09:cf:3e:d7:74:72:86:5a:78:8c:
                    4c:24:ca:03:23:06:c1:ee:5e:83:ea:71:4e:45:f3:
                    ce:15:36:9c:fc:c8:f3:7a:ab:b2:99:06:d0
                ASN1 OID: secp521r1
                NIST CURVE: P-521
        X509v3 extensions:
            X509v3 Basic Constraints: 
                CA:FALSE
            Netscape Comment: 
                OpenSSL Generated Certificate
            X509v3 Subject Key Identifier: 
                0D:A0:2D:A2:68:93:DA:17:DD:C1:18:22:CD:95:5F:F7:AC:15:80:0F
            X509v3 Authority Key Identifier: 
                keyid:A0:38:8C:57:88:AD:5E:A6:E4:46:AE:6C:0C:6C:AF:90:9C:2F:3C:A7

    Signature Algorithm: ecdsa-with-SHA512
         30:81:88:02:42:00:ab:f7:2b:6a:a6:ac:35:87:d4:6a:93:a2:
         58:42:f2:06:12:1c:77:c8:f9:e0:b9:84:03:ca:d4:9a:2c:12:
         82:99:25:dc:e7:03:2c:81:b1:41:5a:81:d7:64:03:0a:45:d9:
         73:fc:99:e4:9b:cb:0e:54:c2:c7:62:45:ba:39:53:6c:ef:02:
         42:01:3c:1c:1c:35:0a:db:3c:8b:65:6a:5e:03:87:68:97:5a:
         87:29:c5:f1:c4:7b:6d:b4:16:05:b7:dc:d0:05:4f:c1:1c:8a:
         98:07:26:5f:0a:21:27:ab:00:38:41:c8:87:40:67:72:41:c9:
         90:9f:ce:d6:c8:fb:30:54:be:d3:a3:84:74
-----BEGIN CERTIFICATE-----
MIICRzCCAaigAwIBAgIFAI+w3KswCgYIKoZIzj0EAwQwJjEkMCIGA1UEAwwbU1JL
M19zaGE1MTJfc2VjcDUyMXIxX3YzX2NhMCAXDTI0MTEwODE5MDI0M1oYDzIwNzQx
MDI3MTkwMjQzWjApMScwJQYDVQQDDB5TR0szXzFfc2hhNTEyX3NlY3A1MjFyMV92
M191c3IwgZswEAYHKoZIzj0CAQYFK4EEACMDgYYABAH6e9d32GWlrMIiMGa+/vmr
lLgs/nNZ6pXjKgZxY/crv5T1ReSgaJswhE6OV+A60oVNKspRBIG3t4+Lh56UWlYD
VQD9mEDmzw2CQFuxAPSzG+NfTGn6nOAIEWT1kBgJzz7XdHKGWniMTCTKAyMGwe5e
g+pxTkXzzhU2nPzI83qrspkG0KN7MHkwCQYDVR0TBAIwADAsBglghkgBhvhCAQ0E
HxYdT3BlblNTTCBHZW5lcmF0ZWQgQ2VydGlmaWNhdGUwHQYDVR0OBBYEFA2gLaJo
k9oX3cEYIs2VX/esFYAPMB8GA1UdIwQYMBaAFKA4jFeIrV6m5EaubAxsr5CcLzyn
MAoGCCqGSM49BAMEA4GMADCBiAJCAKv3K2qmrDWH1GqTolhC8gYSHHfI+eC5hAPK
1JosEoKZJdznAyyBsUFagddkAwpF2XP8meSbyw5UwsdiRbo5U2zvAkIBPBwcNQrb
PItlal4Dh2iXWocpxfHEe220FgW33NAFT8EcipgHJl8KISerADhByIdAZ3JByZCf
ztbI+zBUvtOjhHQ=
-----END CERTIFICATE-----
