Certificate:
    Data:
        Version: 3 (0x2)
        Serial Number: 2410732717 (0x8fb0dcad)
        Signature Algorithm: ecdsa-with-SHA512
        Issuer: CN=SRK4_sha512_secp521r1_v3_ca
        Validity
            Not Before: Nov  8 19:02:43 2024 GMT
            Not After : Oct 27 19:02:43 2074 GMT
        Subject: CN=SGK4_1_sha512_secp521r1_v3_usr
        Subject Public Key Info:
            Public Key Algorithm: id-ecPublicKey
                Public-Key: (521 bit)
                pub:
                    04:00:22:5f:91:8b:3d:a3:c6:94:84:13:f2:aa:a8:
                    87:1b:65:e5:c4:02:2a:30:1d:dd:bc:1c:1e:1c:98:
                    38:c2:bf:f9:8b:36:fd:ea:06:b9:88:e4:b8:da:7a:
                    a4:a8:d1:6e:a1:f5:64:93:eb:0b:a2:3f:26:65:42:
                    01:a9:35:7b:95:c3:99:00:8e:a3:88:b7:c2:64:19:
                    94:32:2f:55:9b:f7:a1:2f:2b:3e:c3:e3:50:af:bb:
                    28:e4:f5:fc:f4:be:bd:49:6c:16:f2:e4:7a:69:27:
                    4c:4a:34:56:ac:e7:88:ea:f2:06:b9:05:3f:95:65:
                    dc:78:d0:52:04:02:7d:46:ed:30:2b:43:ea
                ASN1 OID: secp521r1
                NIST CURVE: P-521
        X509v3 extensions:
            X509v3 Basic Constraints: 
                CA:FALSE
            Netscape Comment: 
                OpenSSL Generated Certificate
            X509v3 Subject Key Identifier: 
                08:B8:CB:76:C7:D5:53:2A:04:DE:EC:44:60:0C:32:DB:1F:09:69:C0
            X509v3 Authority Key Identifier: 
                keyid:02:4B:D0:71:BC:07:A6:55:89:43:AF:DB:C7:46:7D:EB:A0:FB:46:D6

    Signature Algorithm: ecdsa-with-SHA512
         30:81:86:02:41:4f:8a:fe:c8:b6:f5:53:e6:90:ec:64:8e:b6:
         b7:17:7b:e6:26:43:a1:c3:4a:3a:dd:d8:28:0c:a5:dd:68:de:
         d0:c3:a9:54:cb:09:40:c6:89:be:cf:c8:b1:25:47:ec:c6:a0:
         80:65:9f:ea:59:bb:4e:a9:87:00:a4:7d:cf:64:e1:62:02:41:
         7d:ad:b7:44:31:92:4b:f3:0c:f3:9b:cb:7c:4e:d8:31:ff:f9:
         58:6c:6d:f6:0e:fc:3b:60:ed:0d:33:8d:94:56:d7:98:06:bc:
         0f:54:3f:8d:d4:2e:34:87:07:6a:bf:6f:bf:3b:43:e1:2e:cd:
         d0:2e:01:19:ed:49:cd:a5:06:a2:8e
-----BEGIN CERTIFICATE-----
MIICRTCCAaigAwIBAgIFAI+w3K0wCgYIKoZIzj0EAwQwJjEkMCIGA1UEAwwbU1JL
NF9zaGE1MTJfc2VjcDUyMXIxX3YzX2NhMCAXDTI0MTEwODE5MDI0M1oYDzIwNzQx
MDI3MTkwMjQzWjApMScwJQYDVQQDDB5TR0s0XzFfc2hhNTEyX3NlY3A1MjFyMV92
M191c3IwgZswEAYHKoZIzj0CAQYFK4EEACMDgYYABAAiX5GLPaPGlIQT8qqohxtl
5cQCKjAd3bwcHhyYOMK/+Ys2/eoGuYjkuNp6pKjRbqH1ZJPrC6I/JmVCAak1e5XD
mQCOo4i3wmQZlDIvVZv3oS8rPsPjUK+7KOT1/PS+vUlsFvLkemknTEo0VqzniOry
BrkFP5Vl3HjQUgQCfUbtMCtD6qN7MHkwCQYDVR0TBAIwADAsBglghkgBhvhCAQ0E
HxYdT3BlblNTTCBHZW5lcmF0ZWQgQ2VydGlmaWNhdGUwHQYDVR0OBBYEFAi4y3bH
1VMqBN7sRGAMMtsfCWnAMB8GA1UdIwQYMBaAFAJL0HG8B6ZViUOv28dGfeug+0bW
MAoGCCqGSM49BAMEA4GKADCBhgJBT4r+yLb1U+aQ7GSOtrcXe+YmQ6HDSjrd2CgM
pd1o3tDDqVTLCUDGib7PyLElR+zGoIBln+pZu06phwCkfc9k4WICQX2tt0Qxkkvz
DPOby3xO2DH/+VhsbfYO/Dtg7Q0zjZRW15gGvA9UP43ULjSHB2q/b787Q+EuzdAu
ARntSc2lBqKO
-----END CERTIFICATE-----
