Certificate:
    Data:
        Version: 3 (0x2)
        Serial Number: 2410732710 (0x8fb0dca6)
        Signature Algorithm: ecdsa-with-SHA512
        Issuer: CN=CA1_sha512_secp521r1_v3_ca
        Validity
            Not Before: Nov  8 19:02:42 2024 GMT
            Not After : Oct 27 19:02:42 2074 GMT
        Subject: CN=SRK1_sha512_secp521r1_v3_ca
        Subject Public Key Info:
            Public Key Algorithm: id-ecPublicKey
                Public-Key: (521 bit)
                pub:
                    04:01:d1:ba:b2:38:ee:b2:e7:3a:7a:fd:2d:b6:22:
                    d3:29:a2:c7:41:c4:4a:e8:03:79:3b:95:45:3e:c4:
                    92:24:e4:c9:4f:65:ef:56:1c:29:49:fe:9f:bb:17:
                    18:63:18:d4:b6:64:3d:ce:00:eb:f5:66:2d:cd:19:
                    9e:47:6b:f4:27:63:1f:01:73:59:67:9a:b0:ee:cd:
                    85:d9:20:d6:dc:f1:18:27:67:25:92:2c:2d:81:34:
                    0d:66:7f:31:58:36:39:73:37:61:a6:40:2e:f5:d6:
                    0b:34:4e:4c:9d:3f:da:5d:c8:c0:23:7b:92:c9:ea:
                    6e:53:cd:3c:2b:c8:4e:4c:e8:a8:35:ff:34
                ASN1 OID: secp521r1
                NIST CURVE: P-521
        X509v3 extensions:
            X509v3 Subject Key Identifier: 
                5A:C0:33:D5:D8:DE:2F:98:43:E0:4F:1B:40:60:E7:CC:D3:43:64:23
            X509v3 Authority Key Identifier: 
                keyid:B7:A3:67:9E:F8:8D:CC:11:EB:94:9B:8C:83:F0:79:01:A9:E1:70:F4
                DirName:/CN=CA1_sha512_secp521r1_v3_ca
                serial:67:6A:1B:96:7D:DC:92:70:2A:19:92:3A:A4:EA:20:4C:48:B9:0B:19

            X509v3 Basic Constraints: critical
                CA:TRUE
            X509v3 Key Usage: 
                Certificate Sign
    Signature Algorithm: ecdsa-with-SHA512
         30:81:88:02:42:01:0a:94:08:ba:73:ee:21:9d:df:78:a2:54:
         33:82:e5:a5:71:a8:fc:23:e4:da:f7:a9:4a:38:2b:b7:e7:49:
         16:90:97:ed:3f:6e:2d:27:28:27:bb:84:86:d1:16:8c:33:15:
         ed:4f:65:d8:88:fb:02:1b:99:6d:46:51:98:93:07:74:95:02:
         42:01:0a:93:8c:c1:1f:d6:58:b3:29:36:99:1f:31:ed:20:43:
         c4:74:a0:65:0b:e2:81:94:94:ad:2d:7e:4e:ab:1d:76:28:74:
         29:3c:81:e7:97:5a:d2:68:6b:e4:b2:04:47:6b:16:cc:e9:f9:
         9d:4a:3d:9d:01:5c:5f:89:16:ae:06:20:9d
-----BEGIN CERTIFICATE-----
MIICazCCAcygAwIBAgIFAI+w3KYwCgYIKoZIzj0EAwQwJTEjMCEGA1UEAxQaQ0Ex
X3NoYTUxMl9zZWNwNTIxcjFfdjNfY2EwIBcNMjQxMTA4MTkwMjQyWhgPMjA3NDEw
MjcxOTAyNDJaMCYxJDAiBgNVBAMMG1NSSzFfc2hhNTEyX3NlY3A1MjFyMV92M19j
YTCBmzAQBgcqhkjOPQIBBgUrgQQAIwOBhgAEAdG6sjjusuc6ev0ttiLTKaLHQcRK
6AN5O5VFPsSSJOTJT2XvVhwpSf6fuxcYYxjUtmQ9zgDr9WYtzRmeR2v0J2MfAXNZ
Z5qw7s2F2SDW3PEYJ2clkiwtgTQNZn8xWDY5czdhpkAu9dYLNE5MnT/aXcjAI3uS
yepuU808K8hOTOioNf80o4GiMIGfMB0GA1UdDgQWBBRawDPV2N4vmEPgTxtAYOfM
00NkIzBgBgNVHSMEWTBXgBS3o2ee+I3MEeuUm4yD8HkBqeFw9KEppCcwJTEjMCEG
A1UEAxQaQ0ExX3NoYTUxMl9zZWNwNTIxcjFfdjNfY2GCFGdqG5Z93JJwKhmSOqTq
IExIuQsZMA8GA1UdEwEB/wQFMAMBAf8wCwYDVR0PBAQDAgIEMAoGCCqGSM49BAME
A4GMADCBiAJCAQqUCLpz7iGd33iiVDOC5aVxqPwj5Nr3qUo4K7fnSRaQl+0/bi0n
KCe7hIbRFowzFe1PZdiI+wIbmW1GUZiTB3SVAkIBCpOMwR/WWLMpNpkfMe0gQ8R0
oGUL4oGUlK0tfk6rHXYodCk8geeXWtJoa+SyBEdrFszp+Z1KPZ0BXF+JFq4GIJ0=
-----END CERTIFICATE-----
