Certificate:
    Data:
        Version: 3 (0x2)
        Serial Number: 2410732712 (0x8fb0dca8)
        Signature Algorithm: ecdsa-with-SHA512
        Issuer: CN=CA1_sha512_secp521r1_v3_ca
        Validity
            Not Before: Nov  8 19:02:42 2024 GMT
            Not After : Oct 27 19:02:42 2074 GMT
        Subject: CN=SRK2_sha512_secp521r1_v3_ca
        Subject Public Key Info:
            Public Key Algorithm: id-ecPublicKey
                Public-Key: (521 bit)
                pub:
                    04:01:44:9c:53:04:85:42:31:ea:ad:83:24:0d:e7:
                    3b:3a:f5:63:f7:31:e9:8e:b3:f1:82:db:4a:44:10:
                    b6:84:56:42:f8:ee:89:56:bd:d1:7a:1f:22:b2:6d:
                    16:2d:3a:ff:2c:33:3d:09:22:fa:8e:2a:92:0b:23:
                    84:66:2a:3a:3d:f0:23:01:27:2d:2e:9c:9e:29:2a:
                    fa:de:54:c0:6c:02:be:8a:ee:6a:97:56:35:11:00:
                    61:c3:10:91:4b:6c:dc:22:f9:6f:2f:13:d6:ab:f8:
                    a4:32:d7:86:a3:6c:c8:99:b4:31:62:87:72:3c:a9:
                    5e:e3:a8:26:fc:d4:7f:69:d4:5e:c2:7a:bf
                ASN1 OID: secp521r1
                NIST CURVE: P-521
        X509v3 extensions:
            X509v3 Subject Key Identifier: 
                C2:B4:65:44:51:99:24:3C:84:FE:6A:EA:3F:25:41:4D:0E:AE:70:64
            X509v3 Authority Key Identifier: 
                keyid:B7:A3:67:9E:F8:8D:CC:11:EB:94:9B:8C:83:F0:79:01:A9:E1:70:F4
                DirName:/CN=CA1_sha512_secp521r1_v3_ca
                serial:67:6A:1B:96:7D:DC:92:70:2A:19:92:3A:A4:EA:20:4C:48:B9:0B:19

            X509v3 Basic Constraints: critical
                CA:TRUE
            X509v3 Key Usage: 
                Certificate Sign
    Signature Algorithm: ecdsa-with-SHA512
         30:81:87:02:41:54:44:5c:e4:83:aa:b4:a5:09:45:f0:06:55:
         3e:7f:80:05:de:2d:0b:a1:61:45:50:32:b8:f5:50:4d:e6:61:
         b7:23:ac:fb:60:c1:87:9d:4b:4b:9a:0e:8b:ed:67:89:be:26:
         6d:56:db:f7:e5:b8:c2:c4:22:c8:45:e8:e8:82:90:8a:02:42:
         01:b9:dc:47:a8:ef:d5:77:4b:cb:b5:ea:0d:9f:7b:f1:0b:89:
         7a:e5:70:81:77:68:28:6b:12:77:f2:3a:a8:42:3b:db:83:8d:
         52:f1:90:19:f9:e0:f0:69:ce:18:f1:74:6b:55:fc:ff:fa:62:
         4c:41:fc:af:3d:61:17:88:b8:77:f0:eb
-----BEGIN CERTIFICATE-----
MIICajCCAcygAwIBAgIFAI+w3KgwCgYIKoZIzj0EAwQwJTEjMCEGA1UEAxQaQ0Ex
X3NoYTUxMl9zZWNwNTIxcjFfdjNfY2EwIBcNMjQxMTA4MTkwMjQyWhgPMjA3NDEw
MjcxOTAyNDJaMCYxJDAiBgNVBAMMG1NSSzJfc2hhNTEyX3NlY3A1MjFyMV92M19j
YTCBmzAQBgcqhkjOPQIBBgUrgQQAIwOBhgAEAUScUwSFQjHqrYMkDec7OvVj9zHp
jrPxgttKRBC2hFZC+O6JVr3Reh8ism0WLTr/LDM9CSL6jiqSCyOEZio6PfAjASct
LpyeKSr63lTAbAK+iu5ql1Y1EQBhwxCRS2zcIvlvLxPWq/ikMteGo2zImbQxYody
PKle46gm/NR/adRewnq/o4GiMIGfMB0GA1UdDgQWBBTCtGVEUZkkPIT+auo/JUFN
Dq5wZDBgBgNVHSMEWTBXgBS3o2ee+I3MEeuUm4yD8HkBqeFw9KEppCcwJTEjMCEG
A1UEAxQaQ0ExX3NoYTUxMl9zZWNwNTIxcjFfdjNfY2GCFGdqG5Z93JJwKhmSOqTq
IExIuQsZMA8GA1UdEwEB/wQFMAMBAf8wCwYDVR0PBAQDAgIEMAoGCCqGSM49BAME
A4GLADCBhwJBVERc5IOqtKUJRfAGVT5/gAXeLQuhYUVQMrj1UE3mYbcjrPtgwYed
S0uaDovtZ4m+Jm1W2/fluMLEIshF6OiCkIoCQgG53Eeo79V3S8u16g2fe/ELiXrl
cIF3aChrEnfyOqhCO9uDjVLxkBn54PBpzhjxdGtV/P/6YkxB/K89YReIuHfw6w==
-----END CERTIFICATE-----
