Certificate:
    Data:
        Version: 3 (0x2)
        Serial Number: 305419897 (0x12345679)
        Signature Algorithm: ecdsa-with-SHA384
        Issuer: CN=CA1_sha384_secp384r1_v3_ca
        Validity
            Not Before: May  6 12:08:50 2024 GMT
            Not After : May  4 12:08:50 2034 GMT
        Subject: CN=SRK2_sha384_secp384r1_v3_usr
        Subject Public Key Info:
            Public Key Algorithm: id-ecPublicKey
                Public-Key: (384 bit)
                pub:
                    04:28:6a:c1:14:b2:99:5e:0b:1c:12:c4:41:b7:8b:
                    32:93:43:9b:5e:21:06:8f:f6:6b:de:11:cb:45:65:
                    34:e8:20:17:43:10:03:26:5a:dc:b5:98:20:64:2d:
                    62:9a:f9:46:fd:bb:cc:ec:e1:9e:82:7b:d8:8c:bf:
                    11:46:49:9c:58:7f:93:8f:70:91:76:4a:8a:95:fe:
                    ce:e4:08:26:04:5d:5e:ad:b1:4e:6d:27:26:c8:d6:
                    a3:fa:ee:40:74:8b:ec
                ASN1 OID: secp384r1
                NIST CURVE: P-384
        X509v3 extensions:
            X509v3 Basic Constraints: 
                CA:FALSE
            Netscape Comment: 
                OpenSSL Generated Certificate
            X509v3 Subject Key Identifier: 
                45:E5:A5:78:4E:B7:6F:78:D6:D7:98:2B:D8:6E:93:E0:FB:C2:9A:E7
            X509v3 Authority Key Identifier: 
                39:C5:1A:DD:23:6D:17:C3:9A:BF:23:E2:CA:D9:91:C9:3B:5A:B9:97
    Signature Algorithm: ecdsa-with-SHA384
    Signature Value:
        30:66:02:31:00:9d:a5:05:5c:b8:0d:5b:71:9d:10:0b:22:07:
        ae:b8:73:8a:a2:51:a6:ab:f8:f5:cc:df:7b:6e:6a:cb:00:49:
        4d:39:6b:16:8d:a3:be:41:0b:56:51:66:c5:bb:e5:b4:e6:02:
        31:00:af:4b:9d:7a:ea:2d:b7:99:dd:d7:fb:50:d2:31:21:85:
        fd:49:70:36:69:35:94:5a:15:06:34:8f:cc:83:1e:e9:16:bd:
        33:e5:ad:1e:5a:29:aa:8c:a9:1b:09:0d:7d:23
-----BEGIN CERTIFICATE-----
MIIB9zCCAXygAwIBAgIEEjRWeTAKBggqhkjOPQQDAzAlMSMwIQYDVQQDFBpDQTFf
c2hhMzg0X3NlY3AzODRyMV92M19jYTAeFw0yNDA1MDYxMjA4NTBaFw0zNDA1MDQx
MjA4NTBaMCcxJTAjBgNVBAMMHFNSSzJfc2hhMzg0X3NlY3AzODRyMV92M191c3Iw
djAQBgcqhkjOPQIBBgUrgQQAIgNiAAQoasEUspleCxwSxEG3izKTQ5teIQaP9mve
EctFZTToIBdDEAMmWty1mCBkLWKa+Ub9u8zs4Z6Ce9iMvxFGSZxYf5OPcJF2SoqV
/s7kCCYEXV6tsU5tJybI1qP67kB0i+yjezB5MAkGA1UdEwQCMAAwLAYJYIZIAYb4
QgENBB8WHU9wZW5TU0wgR2VuZXJhdGVkIENlcnRpZmljYXRlMB0GA1UdDgQWBBRF
5aV4TrdveNbXmCvYbpPg+8Ka5zAfBgNVHSMEGDAWgBQ5xRrdI20Xw5q/I+LK2ZHJ
O1q5lzAKBggqhkjOPQQDAwNpADBmAjEAnaUFXLgNW3GdEAsiB664c4qiUaar+PXM
33tuassASU05axaNo75BC1ZRZsW75bTmAjEAr0udeuott5nd1/tQ0jEhhf1JcDZp
NZRaFQY0j8yDHukWvTPlrR5aKaqMqRsJDX0j
-----END CERTIFICATE-----
