Certificate:
    Data:
        Version: 3 (0x2)
        Serial Number: 2410732714 (0x8fb0dcaa)
        Signature Algorithm: ecdsa-with-SHA512
        Issuer: CN=CA1_sha512_secp521r1_v3_ca
        Validity
            Not Before: Nov  8 19:02:43 2024 GMT
            Not After : Oct 27 19:02:43 2074 GMT
        Subject: CN=SRK3_sha512_secp521r1_v3_ca
        Subject Public Key Info:
            Public Key Algorithm: id-ecPublicKey
                Public-Key: (521 bit)
                pub:
                    04:00:0a:79:b3:7e:48:48:21:45:be:6f:66:47:5c:
                    7a:da:51:a2:a9:41:45:f9:c2:7b:c2:ef:c5:0e:94:
                    ed:fd:18:4f:b9:19:ba:a5:24:7f:2a:56:58:72:56:
                    c5:2a:66:30:42:dd:8d:d8:34:71:e2:d4:1e:0d:06:
                    f7:e4:6d:33:19:fc:57:01:ec:ee:b2:9f:e8:ec:44:
                    12:14:6f:91:4d:ec:db:61:2b:ed:de:8f:0a:16:42:
                    27:bd:24:9b:a1:2e:49:93:bf:2a:ae:c8:88:9c:ee:
                    9a:83:95:03:fd:76:63:a5:88:f5:c9:f8:bf:5f:93:
                    ed:ec:f9:e3:81:40:ca:58:e0:cf:af:12:29
                ASN1 OID: secp521r1
                NIST CURVE: P-521
        X509v3 extensions:
            X509v3 Subject Key Identifier: 
                A0:38:8C:57:88:AD:5E:A6:E4:46:AE:6C:0C:6C:AF:90:9C:2F:3C:A7
            X509v3 Authority Key Identifier: 
                keyid:B7:A3:67:9E:F8:8D:CC:11:EB:94:9B:8C:83:F0:79:01:A9:E1:70:F4
                DirName:/CN=CA1_sha512_secp521r1_v3_ca
                serial:67:6A:1B:96:7D:DC:92:70:2A:19:92:3A:A4:EA:20:4C:48:B9:0B:19

            X509v3 Basic Constraints: critical
                CA:TRUE
            X509v3 Key Usage: 
                Certificate Sign
    Signature Algorithm: ecdsa-with-SHA512
         30:81:87:02:41:14:34:f1:34:f7:a8:8a:62:8f:b9:d6:d6:2a:
         94:ae:8d:f6:55:6c:38:26:42:83:e7:3a:92:5a:4e:7b:c4:25:
         5b:b4:b5:bf:a2:a0:b8:0e:a6:95:8c:78:b0:28:df:9e:97:8a:
         35:44:3e:bd:b7:a1:61:5c:d6:6c:bd:32:c4:cb:81:3f:02:42:
         01:5b:80:b1:d6:bf:aa:65:2b:d3:5b:76:fb:c0:08:a9:b5:26:
         88:d0:c1:a8:fe:b8:92:8a:cf:4c:b2:83:1d:14:e4:63:4e:a8:
         c5:46:83:f0:50:32:90:68:d1:f3:78:84:d4:1a:22:00:54:09:
         a1:29:c8:a4:6e:0c:6b:a7:a0:22:d0:df
-----BEGIN CERTIFICATE-----
MIICajCCAcygAwIBAgIFAI+w3KowCgYIKoZIzj0EAwQwJTEjMCEGA1UEAxQaQ0Ex
X3NoYTUxMl9zZWNwNTIxcjFfdjNfY2EwIBcNMjQxMTA4MTkwMjQzWhgPMjA3NDEw
MjcxOTAyNDNaMCYxJDAiBgNVBAMMG1NSSzNfc2hhNTEyX3NlY3A1MjFyMV92M19j
YTCBmzAQBgcqhkjOPQIBBgUrgQQAIwOBhgAEAAp5s35ISCFFvm9mR1x62lGiqUFF
+cJ7wu/FDpTt/RhPuRm6pSR/KlZYclbFKmYwQt2N2DRx4tQeDQb35G0zGfxXAezu
sp/o7EQSFG+RTezbYSvt3o8KFkInvSSboS5Jk78qrsiInO6ag5UD/XZjpYj1yfi/
X5Pt7PnjgUDKWODPrxIpo4GiMIGfMB0GA1UdDgQWBBSgOIxXiK1epuRGrmwMbK+Q
nC88pzBgBgNVHSMEWTBXgBS3o2ee+I3MEeuUm4yD8HkBqeFw9KEppCcwJTEjMCEG
A1UEAxQaQ0ExX3NoYTUxMl9zZWNwNTIxcjFfdjNfY2GCFGdqG5Z93JJwKhmSOqTq
IExIuQsZMA8GA1UdEwEB/wQFMAMBAf8wCwYDVR0PBAQDAgIEMAoGCCqGSM49BAME
A4GLADCBhwJBFDTxNPeoimKPudbWKpSujfZVbDgmQoPnOpJaTnvEJVu0tb+ioLgO
ppWMeLAo356XijVEPr23oWFc1my9MsTLgT8CQgFbgLHWv6plK9NbdvvACKm1JojQ
waj+uJKKz0yygx0U5GNOqMVGg/BQMpBo0fN4hNQaIgBUCaEpyKRuDGunoCLQ3w==
-----END CERTIFICATE-----
