Certificate:
    Data:
        Version: 3 (0x2)
        Serial Number: 2410732716 (0x8fb0dcac)
        Signature Algorithm: ecdsa-with-SHA512
        Issuer: CN=CA1_sha512_secp521r1_v3_ca
        Validity
            Not Before: Nov  8 19:02:43 2024 GMT
            Not After : Oct 27 19:02:43 2074 GMT
        Subject: CN=SRK4_sha512_secp521r1_v3_ca
        Subject Public Key Info:
            Public Key Algorithm: id-ecPublicKey
                Public-Key: (521 bit)
                pub:
                    04:00:bc:77:d9:07:3f:76:0e:41:12:44:35:23:be:
                    4c:e4:3c:f8:8b:54:cf:64:c5:59:da:bb:73:31:c7:
                    cc:1d:1c:c3:7a:70:5d:60:e9:12:18:70:a4:0b:1f:
                    30:8c:e2:76:cc:32:6d:f7:ae:34:6f:3e:fd:92:3d:
                    17:49:18:a3:f8:db:5b:01:8a:c9:44:c9:03:cb:fa:
                    9e:8c:ff:36:4b:ae:d0:d5:36:b4:12:c8:88:ec:85:
                    4e:1b:58:f4:4b:50:8c:a1:c0:90:ba:ea:fb:0d:8e:
                    5c:e6:56:7d:78:31:74:02:55:d9:45:64:cb:13:f6:
                    89:82:db:d2:e1:1e:11:ed:7a:57:3b:f2:1d
                ASN1 OID: secp521r1
                NIST CURVE: P-521
        X509v3 extensions:
            X509v3 Subject Key Identifier: 
                02:4B:D0:71:BC:07:A6:55:89:43:AF:DB:C7:46:7D:EB:A0:FB:46:D6
            X509v3 Authority Key Identifier: 
                keyid:B7:A3:67:9E:F8:8D:CC:11:EB:94:9B:8C:83:F0:79:01:A9:E1:70:F4
                DirName:/CN=CA1_sha512_secp521r1_v3_ca
                serial:67:6A:1B:96:7D:DC:92:70:2A:19:92:3A:A4:EA:20:4C:48:B9:0B:19

            X509v3 Basic Constraints: critical
                CA:TRUE
            X509v3 Key Usage: 
                Certificate Sign
    Signature Algorithm: ecdsa-with-SHA512
         30:81:87:02:42:01:ce:34:59:71:6f:1f:3d:05:32:50:e4:18:
         ca:41:b4:24:63:f5:c9:a8:c8:d1:93:ef:63:c8:ce:b6:58:7c:
         08:35:3f:9f:df:ad:35:03:dd:b6:a7:fb:b8:09:c3:69:82:e4:
         b2:c7:28:79:16:c0:6b:c2:2a:bc:a2:01:98:61:90:75:f1:02:
         41:39:fa:0b:a8:a9:23:cd:89:4a:0b:aa:b9:1f:88:68:f5:d4:
         21:c9:eb:a9:5b:89:85:62:77:c1:a2:d3:1e:21:7f:78:8c:53:
         40:a0:42:e7:93:e6:12:bd:3f:be:09:92:41:0f:bc:15:14:f7:
         7b:f6:84:24:f1:cb:c6:9b:56:22:ed:f6
-----BEGIN CERTIFICATE-----
MIICajCCAcygAwIBAgIFAI+w3KwwCgYIKoZIzj0EAwQwJTEjMCEGA1UEAxQaQ0Ex
X3NoYTUxMl9zZWNwNTIxcjFfdjNfY2EwIBcNMjQxMTA4MTkwMjQzWhgPMjA3NDEw
MjcxOTAyNDNaMCYxJDAiBgNVBAMMG1NSSzRfc2hhNTEyX3NlY3A1MjFyMV92M19j
YTCBmzAQBgcqhkjOPQIBBgUrgQQAIwOBhgAEALx32Qc/dg5BEkQ1I75M5Dz4i1TP
ZMVZ2rtzMcfMHRzDenBdYOkSGHCkCx8wjOJ2zDJt9640bz79kj0XSRij+NtbAYrJ
RMkDy/qejP82S67Q1Ta0EsiI7IVOG1j0S1CMocCQuur7DY5c5lZ9eDF0AlXZRWTL
E/aJgtvS4R4R7XpXO/Ido4GiMIGfMB0GA1UdDgQWBBQCS9BxvAemVYlDr9vHRn3r
oPtG1jBgBgNVHSMEWTBXgBS3o2ee+I3MEeuUm4yD8HkBqeFw9KEppCcwJTEjMCEG
A1UEAxQaQ0ExX3NoYTUxMl9zZWNwNTIxcjFfdjNfY2GCFGdqG5Z93JJwKhmSOqTq
IExIuQsZMA8GA1UdEwEB/wQFMAMBAf8wCwYDVR0PBAQDAgIEMAoGCCqGSM49BAME
A4GLADCBhwJCAc40WXFvHz0FMlDkGMpBtCRj9cmoyNGT72PIzrZYfAg1P5/frTUD
3ban+7gJw2mC5LLHKHkWwGvCKryiAZhhkHXxAkE5+guoqSPNiUoLqrkfiGj11CHJ
66lbiYVid8Gi0x4hf3iMU0CgQueT5hK9P74JkkEPvBUU93v2hCTxy8abViLt9g==
-----END CERTIFICATE-----
