Certificate:
    Data:
        Version: 3 (0x2)
        Serial Number: 305419899 (0x1234567b)
        Signature Algorithm: ecdsa-with-SHA384
        Issuer: CN=CA1_sha384_secp384r1_v3_ca
        Validity
            Not Before: May  6 12:08:50 2024 GMT
            Not After : May  4 12:08:50 2034 GMT
        Subject: CN=SRK4_sha384_secp384r1_v3_usr
        Subject Public Key Info:
            Public Key Algorithm: id-ecPublicKey
                Public-Key: (384 bit)
                pub:
                    04:e8:c8:77:64:51:c0:5c:1a:39:53:7c:86:a8:a9:
                    ee:01:c7:12:4f:66:ee:c1:f3:37:f7:52:4f:21:5c:
                    64:f5:b9:c8:74:c2:f0:ed:19:79:76:58:66:06:a9:
                    91:0b:6c:55:81:36:47:07:82:6e:cc:fd:27:75:d4:
                    b8:09:f5:43:6b:0d:72:0d:06:0c:b8:c9:f6:19:7c:
                    b9:a7:ff:01:61:fe:2a:cc:1e:2d:60:35:9a:55:3a:
                    13:45:0b:fb:a8:6e:56
                ASN1 OID: secp384r1
                NIST CURVE: P-384
        X509v3 extensions:
            X509v3 Basic Constraints: 
                CA:FALSE
            Netscape Comment: 
                OpenSSL Generated Certificate
            X509v3 Subject Key Identifier: 
                86:EB:8C:C4:E3:9C:3D:54:93:87:BC:D2:AC:EC:85:66:35:89:20:43
            X509v3 Authority Key Identifier: 
                39:C5:1A:DD:23:6D:17:C3:9A:BF:23:E2:CA:D9:91:C9:3B:5A:B9:97
    Signature Algorithm: ecdsa-with-SHA384
    Signature Value:
        30:65:02:30:63:13:be:f4:6e:9f:83:62:f5:fa:57:10:de:5e:
        fd:1a:3c:0a:34:42:df:25:c1:a5:25:2e:98:e6:ad:75:00:d4:
        0a:8a:25:74:be:59:3f:33:77:58:a4:58:04:11:8c:f7:02:31:
        00:f3:f1:15:bd:e1:15:a5:08:4b:f5:3c:34:e3:7a:d5:93:ba:
        6d:95:4c:c2:a1:b5:b9:eb:e7:9e:98:c3:25:5c:1e:45:2c:0b:
        af:38:e7:01:83:e9:2e:2f:c8:66:f2:01:dc
-----BEGIN CERTIFICATE-----
MIIB9jCCAXygAwIBAgIEEjRWezAKBggqhkjOPQQDAzAlMSMwIQYDVQQDFBpDQTFf
c2hhMzg0X3NlY3AzODRyMV92M19jYTAeFw0yNDA1MDYxMjA4NTBaFw0zNDA1MDQx
MjA4NTBaMCcxJTAjBgNVBAMMHFNSSzRfc2hhMzg0X3NlY3AzODRyMV92M191c3Iw
djAQBgcqhkjOPQIBBgUrgQQAIgNiAAToyHdkUcBcGjlTfIaoqe4BxxJPZu7B8zf3
Uk8hXGT1uch0wvDtGXl2WGYGqZELbFWBNkcHgm7M/Sd11LgJ9UNrDXINBgy4yfYZ
fLmn/wFh/irMHi1gNZpVOhNFC/uoblajezB5MAkGA1UdEwQCMAAwLAYJYIZIAYb4
QgENBB8WHU9wZW5TU0wgR2VuZXJhdGVkIENlcnRpZmljYXRlMB0GA1UdDgQWBBSG
64zE45w9VJOHvNKs7IVmNYkgQzAfBgNVHSMEGDAWgBQ5xRrdI20Xw5q/I+LK2ZHJ
O1q5lzAKBggqhkjOPQQDAwNoADBlAjBjE770bp+DYvX6VxDeXv0aPAo0Qt8lwaUl
LpjmrXUA1AqKJXS+WT8zd1ikWAQRjPcCMQDz8RW94RWlCEv1PDTjetWTum2VTMKh
tbnr556YwyVcHkUsC6845wGD6S4vyGbyAdw=
-----END CERTIFICATE-----
